ARM GAS  C:\Users\David\AppData\Local\Temp\ccyyjPFc.s 			page 1


   1              		.syntax unified
   2              		.cpu cortex-m3
   3              		.fpu softvfp
   4              		.eabi_attribute 20, 1
   5              		.eabi_attribute 21, 1
   6              		.eabi_attribute 23, 3
   7              		.eabi_attribute 24, 1
   8              		.eabi_attribute 25, 1
   9              		.eabi_attribute 26, 1
  10              		.eabi_attribute 30, 1
  11              		.eabi_attribute 34, 1
  12              		.eabi_attribute 18, 4
  13              		.thumb
  14              		.syntax unified
  15              		.file	"d1302.c"
  16              		.text
  17              	.Ltext0:
  18              		.cfi_sections	.debug_frame
  19              		.section	.text.SPIM_IO_RD_Addr,"ax",%progbits
  20              		.align	2
  21              		.global	SPIM_IO_RD_Addr
  22              		.thumb
  23              		.thumb_func
  24              		.type	SPIM_IO_RD_Addr, %function
  25              	SPIM_IO_RD_Addr:
  26              	.LFB63:
  27              		.file 1 "d1302.c"
   1:d1302.c       **** /* ========================================
   2:d1302.c       **** *
   3:d1302.c       **** * Fuggvenykonyvtar a DS1302-es modul hasznalatahoz
   4:d1302.c       **** * Felhasznalva: Oran tanult modszer a kommutnikaciohoz,
   5:d1302.c       **** * DS1302 datasheet a cimzeshez: https://www.hestore.hu/prod_getfile.php?id=9509
   6:d1302.c       **** * Le kell hogy legyen teve egy SPIM nevu SPI Bidirectional nevu SPI Master.
   7:d1302.c       **** */
   8:d1302.c       **** #include "project.h"
   9:d1302.c       **** 
  10:d1302.c       **** void SPIM_IO_RD_Addr(uint8 addr) {
  28              		.loc 1 10 0
  29              		.cfi_startproc
  30              		@ args = 0, pretend = 0, frame = 8
  31              		@ frame_needed = 0, uses_anonymous_args = 0
  32              	.LVL0:
  33 0000 10B5     		push	{r4, lr}
  34              		.cfi_def_cfa_offset 8
  35              		.cfi_offset 4, -8
  36              		.cfi_offset 14, -4
  37 0002 82B0     		sub	sp, sp, #8
  38              		.cfi_def_cfa_offset 16
  39 0004 0446     		mov	r4, r0
  11:d1302.c       ****     volatile uint8 stat;
  12:d1302.c       ****     SS_Write(1u);
  40              		.loc 1 12 0
  41 0006 0120     		movs	r0, #1
  42              	.LVL1:
  43 0008 FFF7FEFF 		bl	SS_Write
  44              	.LVL2:
  45              	.L2:
ARM GAS  C:\Users\David\AppData\Local\Temp\ccyyjPFc.s 			page 2


  13:d1302.c       ****     
  14:d1302.c       ****     do {
  15:d1302.c       ****         stat = SPIM_ReadTxStatus();
  46              		.loc 1 15 0 discriminator 1
  47 000c FFF7FEFF 		bl	SPIM_ReadTxStatus
  48              	.LVL3:
  49 0010 8DF80700 		strb	r0, [sp, #7]
  16:d1302.c       ****     }while(!(stat & SPIM_STS_TX_FIFO_NOT_FULL)); //van hely a fifo-ban
  50              		.loc 1 16 0 discriminator 1
  51 0014 9DF80730 		ldrb	r3, [sp, #7]	@ zero_extendqisi2
  52 0018 13F0040F 		tst	r3, #4
  53 001c F6D0     		beq	.L2
  17:d1302.c       ****     
  18:d1302.c       ****     SPIM_TxEnable(); //irok
  54              		.loc 1 18 0
  55 001e FFF7FEFF 		bl	SPIM_TxEnable
  56              	.LVL4:
  19:d1302.c       ****     SPIM_WriteTxData(addr|0x01); // 1 ... 1
  57              		.loc 1 19 0
  58 0022 44F00100 		orr	r0, r4, #1
  59 0026 FFF7FEFF 		bl	SPIM_WriteTxData
  60              	.LVL5:
  61              	.L3:
  20:d1302.c       ****     do {
  21:d1302.c       ****         stat = SPIM_ReadTxStatus();
  62              		.loc 1 21 0 discriminator 1
  63 002a FFF7FEFF 		bl	SPIM_ReadTxStatus
  64              	.LVL6:
  65 002e 8DF80700 		strb	r0, [sp, #7]
  22:d1302.c       ****     }while(!(stat & SPIM_STS_SPI_DONE)); // kesz a kiiras
  66              		.loc 1 22 0 discriminator 1
  67 0032 9DF80730 		ldrb	r3, [sp, #7]	@ zero_extendqisi2
  68 0036 13F0010F 		tst	r3, #1
  69 003a F6D0     		beq	.L3
  23:d1302.c       ****     SPIM_TxDisable();
  70              		.loc 1 23 0
  71 003c FFF7FEFF 		bl	SPIM_TxDisable
  72              	.LVL7:
  24:d1302.c       ****     SPIM_ClearFIFO();
  73              		.loc 1 24 0
  74 0040 FFF7FEFF 		bl	SPIM_ClearFIFO
  75              	.LVL8:
  25:d1302.c       ****     
  26:d1302.c       **** }
  76              		.loc 1 26 0
  77 0044 02B0     		add	sp, sp, #8
  78              		.cfi_def_cfa_offset 8
  79              		@ sp needed
  80 0046 10BD     		pop	{r4, pc}
  81              		.cfi_endproc
  82              	.LFE63:
  83              		.size	SPIM_IO_RD_Addr, .-SPIM_IO_RD_Addr
  84              		.section	.text.SPIM_IO_RD_Data,"ax",%progbits
  85              		.align	2
  86              		.global	SPIM_IO_RD_Data
  87              		.thumb
  88              		.thumb_func
ARM GAS  C:\Users\David\AppData\Local\Temp\ccyyjPFc.s 			page 3


  89              		.type	SPIM_IO_RD_Data, %function
  90              	SPIM_IO_RD_Data:
  91              	.LFB64:
  27:d1302.c       **** 
  28:d1302.c       **** uint8 SPIM_IO_RD_Data() {
  92              		.loc 1 28 0
  93              		.cfi_startproc
  94              		@ args = 0, pretend = 0, frame = 8
  95              		@ frame_needed = 0, uses_anonymous_args = 0
  96 0000 00B5     		push	{lr}
  97              		.cfi_def_cfa_offset 4
  98              		.cfi_offset 14, -4
  99 0002 83B0     		sub	sp, sp, #12
 100              		.cfi_def_cfa_offset 16
  29:d1302.c       ****     volatile uint8 stat, data;
  30:d1302.c       ****     SS_Write(1u);
 101              		.loc 1 30 0
 102 0004 0120     		movs	r0, #1
 103 0006 FFF7FEFF 		bl	SS_Write
 104              	.LVL9:
  31:d1302.c       ****     SPIM_TxDisable();
 105              		.loc 1 31 0
 106 000a FFF7FEFF 		bl	SPIM_TxDisable
 107              	.LVL10:
  32:d1302.c       ****     SPIM_WriteTxData(0x42); //csak az orajelert
 108              		.loc 1 32 0
 109 000e 4220     		movs	r0, #66
 110 0010 FFF7FEFF 		bl	SPIM_WriteTxData
 111              	.LVL11:
 112              	.L6:
  33:d1302.c       ****     do {
  34:d1302.c       ****     stat = SPIM_ReadTxStatus();
 113              		.loc 1 34 0 discriminator 1
 114 0014 FFF7FEFF 		bl	SPIM_ReadTxStatus
 115              	.LVL12:
 116 0018 8DF80700 		strb	r0, [sp, #7]
  35:d1302.c       ****     }while(!(stat & SPIM_STS_SPI_DONE));//megvarom, h az osszes orajelet kiadja
 117              		.loc 1 35 0 discriminator 1
 118 001c 9DF80730 		ldrb	r3, [sp, #7]	@ zero_extendqisi2
 119 0020 13F0010F 		tst	r3, #1
 120 0024 F6D0     		beq	.L6
 121              	.L7:
  36:d1302.c       ****     
  37:d1302.c       ****     do {
  38:d1302.c       ****        stat = SPIM_ReadRxStatus();
 122              		.loc 1 38 0 discriminator 1
 123 0026 FFF7FEFF 		bl	SPIM_ReadRxStatus
 124              	.LVL13:
 125 002a 8DF80700 		strb	r0, [sp, #7]
  39:d1302.c       ****     }while(!(stat & SPIM_STS_RX_FIFO_NOT_EMPTY)); // a fifo nem ures
 126              		.loc 1 39 0 discriminator 1
 127 002e 9DF80730 		ldrb	r3, [sp, #7]	@ zero_extendqisi2
 128 0032 13F0200F 		tst	r3, #32
 129 0036 F6D0     		beq	.L7
  40:d1302.c       ****     data = SPIM_ReadRxData();
 130              		.loc 1 40 0
 131 0038 FFF7FEFF 		bl	SPIM_ReadRxData
ARM GAS  C:\Users\David\AppData\Local\Temp\ccyyjPFc.s 			page 4


 132              	.LVL14:
 133 003c 8DF80600 		strb	r0, [sp, #6]
  41:d1302.c       ****     SS_Write(0u);
 134              		.loc 1 41 0
 135 0040 0020     		movs	r0, #0
 136 0042 FFF7FEFF 		bl	SS_Write
 137              	.LVL15:
  42:d1302.c       ****     SPIM_ClearFIFO();
 138              		.loc 1 42 0
 139 0046 FFF7FEFF 		bl	SPIM_ClearFIFO
 140              	.LVL16:
  43:d1302.c       ****     return (data); 
 141              		.loc 1 43 0
 142 004a 9DF80600 		ldrb	r0, [sp, #6]	@ zero_extendqisi2
  44:d1302.c       ****     
  45:d1302.c       **** }
 143              		.loc 1 45 0
 144 004e 03B0     		add	sp, sp, #12
 145              		.cfi_def_cfa_offset 4
 146              		@ sp needed
 147 0050 5DF804FB 		ldr	pc, [sp], #4
 148              		.cfi_endproc
 149              	.LFE64:
 150              		.size	SPIM_IO_RD_Data, .-SPIM_IO_RD_Data
 151              		.section	.text.get_hour,"ax",%progbits
 152              		.align	2
 153              		.global	get_hour
 154              		.thumb
 155              		.thumb_func
 156              		.type	get_hour, %function
 157              	get_hour:
 158              	.LFB65:
  46:d1302.c       **** 
  47:d1302.c       **** int get_hour() {
 159              		.loc 1 47 0
 160              		.cfi_startproc
 161              		@ args = 0, pretend = 0, frame = 0
 162              		@ frame_needed = 0, uses_anonymous_args = 0
 163 0000 08B5     		push	{r3, lr}
 164              		.cfi_def_cfa_offset 8
 165              		.cfi_offset 3, -8
 166              		.cfi_offset 14, -4
  48:d1302.c       ****    SPIM_IO_RD_Addr(0x84);
 167              		.loc 1 48 0
 168 0002 8420     		movs	r0, #132
 169 0004 FFF7FEFF 		bl	SPIM_IO_RD_Addr
 170              	.LVL17:
  49:d1302.c       ****    uint8 resp = SPIM_IO_RD_Data();
 171              		.loc 1 49 0
 172 0008 FFF7FEFF 		bl	SPIM_IO_RD_Data
 173              	.LVL18:
  50:d1302.c       ****    uint8 h_0 = (resp&0x0f);
 174              		.loc 1 50 0
 175 000c 00F00F01 		and	r1, r0, #15
 176              	.LVL19:
  51:d1302.c       ****    uint8 h_10 = (resp&0x30) >> 4;
 177              		.loc 1 51 0
ARM GAS  C:\Users\David\AppData\Local\Temp\ccyyjPFc.s 			page 5


 178 0010 C0F30113 		ubfx	r3, r0, #4, #2
 179              	.LVL20:
  52:d1302.c       ****    return h_10*10+h_0;
 180              		.loc 1 52 0
 181 0014 03EB8303 		add	r3, r3, r3, lsl #2
 182              	.LVL21:
 183 0018 5800     		lsls	r0, r3, #1
 184              	.LVL22:
  53:d1302.c       **** }
 185              		.loc 1 53 0
 186 001a 0844     		add	r0, r0, r1
 187 001c 08BD     		pop	{r3, pc}
 188              		.cfi_endproc
 189              	.LFE65:
 190              		.size	get_hour, .-get_hour
 191 001e 00BF     		.section	.text.get_minute,"ax",%progbits
 192              		.align	2
 193              		.global	get_minute
 194              		.thumb
 195              		.thumb_func
 196              		.type	get_minute, %function
 197              	get_minute:
 198              	.LFB66:
  54:d1302.c       **** 
  55:d1302.c       **** int get_minute() {
 199              		.loc 1 55 0
 200              		.cfi_startproc
 201              		@ args = 0, pretend = 0, frame = 0
 202              		@ frame_needed = 0, uses_anonymous_args = 0
 203 0000 08B5     		push	{r3, lr}
 204              		.cfi_def_cfa_offset 8
 205              		.cfi_offset 3, -8
 206              		.cfi_offset 14, -4
  56:d1302.c       ****    SPIM_IO_RD_Addr(0x82);
 207              		.loc 1 56 0
 208 0002 8220     		movs	r0, #130
 209 0004 FFF7FEFF 		bl	SPIM_IO_RD_Addr
 210              	.LVL23:
  57:d1302.c       ****    uint8 resp = SPIM_IO_RD_Data();
 211              		.loc 1 57 0
 212 0008 FFF7FEFF 		bl	SPIM_IO_RD_Data
 213              	.LVL24:
  58:d1302.c       ****    uint8 min_0 = (resp&0x0f);
 214              		.loc 1 58 0
 215 000c 00F00F01 		and	r1, r0, #15
 216              	.LVL25:
  59:d1302.c       ****    uint8 min_10 = (resp&0x70) >> 4;
 217              		.loc 1 59 0
 218 0010 C0F30213 		ubfx	r3, r0, #4, #3
 219              	.LVL26:
  60:d1302.c       ****    return min_10*10+min_0;
 220              		.loc 1 60 0
 221 0014 03EB8303 		add	r3, r3, r3, lsl #2
 222              	.LVL27:
 223 0018 5800     		lsls	r0, r3, #1
 224              	.LVL28:
  61:d1302.c       **** }
ARM GAS  C:\Users\David\AppData\Local\Temp\ccyyjPFc.s 			page 6


 225              		.loc 1 61 0
 226 001a 0844     		add	r0, r0, r1
 227 001c 08BD     		pop	{r3, pc}
 228              		.cfi_endproc
 229              	.LFE66:
 230              		.size	get_minute, .-get_minute
 231 001e 00BF     		.section	.text.get_seconds,"ax",%progbits
 232              		.align	2
 233              		.global	get_seconds
 234              		.thumb
 235              		.thumb_func
 236              		.type	get_seconds, %function
 237              	get_seconds:
 238              	.LFB67:
  62:d1302.c       **** 
  63:d1302.c       **** int get_seconds() {
 239              		.loc 1 63 0
 240              		.cfi_startproc
 241              		@ args = 0, pretend = 0, frame = 0
 242              		@ frame_needed = 0, uses_anonymous_args = 0
 243 0000 08B5     		push	{r3, lr}
 244              		.cfi_def_cfa_offset 8
 245              		.cfi_offset 3, -8
 246              		.cfi_offset 14, -4
  64:d1302.c       **** 
  65:d1302.c       ****     SPIM_IO_RD_Addr(0x80);
 247              		.loc 1 65 0
 248 0002 8020     		movs	r0, #128
 249 0004 FFF7FEFF 		bl	SPIM_IO_RD_Addr
 250              	.LVL29:
  66:d1302.c       ****     uint8 resp = SPIM_IO_RD_Data(); 
 251              		.loc 1 66 0
 252 0008 FFF7FEFF 		bl	SPIM_IO_RD_Data
 253              	.LVL30:
  67:d1302.c       ****     uint8 sec_0 = (resp&0x0f);
 254              		.loc 1 67 0
 255 000c 00F00F01 		and	r1, r0, #15
 256              	.LVL31:
  68:d1302.c       ****     uint8 sec_10 = (resp&0x70) >> 4;
 257              		.loc 1 68 0
 258 0010 C0F30213 		ubfx	r3, r0, #4, #3
 259              	.LVL32:
  69:d1302.c       ****     return sec_10*10+sec_0;
 260              		.loc 1 69 0
 261 0014 03EB8303 		add	r3, r3, r3, lsl #2
 262              	.LVL33:
 263 0018 5800     		lsls	r0, r3, #1
 264              	.LVL34:
  70:d1302.c       **** }
 265              		.loc 1 70 0
 266 001a 0844     		add	r0, r0, r1
 267 001c 08BD     		pop	{r3, pc}
 268              		.cfi_endproc
 269              	.LFE67:
 270              		.size	get_seconds, .-get_seconds
 271 001e 00BF     		.section	.text.get_day,"ax",%progbits
 272              		.align	2
ARM GAS  C:\Users\David\AppData\Local\Temp\ccyyjPFc.s 			page 7


 273              		.global	get_day
 274              		.thumb
 275              		.thumb_func
 276              		.type	get_day, %function
 277              	get_day:
 278              	.LFB68:
  71:d1302.c       **** 
  72:d1302.c       **** int get_day() {
 279              		.loc 1 72 0
 280              		.cfi_startproc
 281              		@ args = 0, pretend = 0, frame = 0
 282              		@ frame_needed = 0, uses_anonymous_args = 0
 283 0000 08B5     		push	{r3, lr}
 284              		.cfi_def_cfa_offset 8
 285              		.cfi_offset 3, -8
 286              		.cfi_offset 14, -4
  73:d1302.c       ****     SPIM_IO_RD_Addr(0x86);
 287              		.loc 1 73 0
 288 0002 8620     		movs	r0, #134
 289 0004 FFF7FEFF 		bl	SPIM_IO_RD_Addr
 290              	.LVL35:
  74:d1302.c       ****     uint8 resp = SPIM_IO_RD_Data();
 291              		.loc 1 74 0
 292 0008 FFF7FEFF 		bl	SPIM_IO_RD_Data
 293              	.LVL36:
  75:d1302.c       ****     uint8 date_0 = (resp&0x0f);
 294              		.loc 1 75 0
 295 000c 00F00F01 		and	r1, r0, #15
 296              	.LVL37:
  76:d1302.c       ****     uint8 date_10 = (resp&0x30) >> 4;
 297              		.loc 1 76 0
 298 0010 C0F30113 		ubfx	r3, r0, #4, #2
 299              	.LVL38:
  77:d1302.c       ****     return date_10*10+date_0;
 300              		.loc 1 77 0
 301 0014 03EB8303 		add	r3, r3, r3, lsl #2
 302              	.LVL39:
 303 0018 5800     		lsls	r0, r3, #1
 304              	.LVL40:
  78:d1302.c       **** }
 305              		.loc 1 78 0
 306 001a 0844     		add	r0, r0, r1
 307 001c 08BD     		pop	{r3, pc}
 308              		.cfi_endproc
 309              	.LFE68:
 310              		.size	get_day, .-get_day
 311 001e 00BF     		.section	.text.get_month,"ax",%progbits
 312              		.align	2
 313              		.global	get_month
 314              		.thumb
 315              		.thumb_func
 316              		.type	get_month, %function
 317              	get_month:
 318              	.LFB69:
  79:d1302.c       **** 
  80:d1302.c       **** int get_month() {
 319              		.loc 1 80 0
ARM GAS  C:\Users\David\AppData\Local\Temp\ccyyjPFc.s 			page 8


 320              		.cfi_startproc
 321              		@ args = 0, pretend = 0, frame = 0
 322              		@ frame_needed = 0, uses_anonymous_args = 0
 323 0000 08B5     		push	{r3, lr}
 324              		.cfi_def_cfa_offset 8
 325              		.cfi_offset 3, -8
 326              		.cfi_offset 14, -4
  81:d1302.c       ****     SPIM_IO_RD_Addr(0x88);
 327              		.loc 1 81 0
 328 0002 8820     		movs	r0, #136
 329 0004 FFF7FEFF 		bl	SPIM_IO_RD_Addr
 330              	.LVL41:
  82:d1302.c       ****     uint8 resp = SPIM_IO_RD_Data();
 331              		.loc 1 82 0
 332 0008 FFF7FEFF 		bl	SPIM_IO_RD_Data
 333              	.LVL42:
  83:d1302.c       ****     uint8 month_0 = (resp&0x0f);
  84:d1302.c       ****     uint8 month_10 = (resp&0x01) >> 4;
  85:d1302.c       ****     return month_10*10+month_0;
  86:d1302.c       **** }
 334              		.loc 1 86 0
 335 000c 00F00F00 		and	r0, r0, #15
 336              	.LVL43:
 337 0010 08BD     		pop	{r3, pc}
 338              		.cfi_endproc
 339              	.LFE69:
 340              		.size	get_month, .-get_month
 341 0012 00BF     		.section	.text.get_year,"ax",%progbits
 342              		.align	2
 343              		.global	get_year
 344              		.thumb
 345              		.thumb_func
 346              		.type	get_year, %function
 347              	get_year:
 348              	.LFB70:
  87:d1302.c       **** 
  88:d1302.c       **** int get_year() {
 349              		.loc 1 88 0
 350              		.cfi_startproc
 351              		@ args = 0, pretend = 0, frame = 0
 352              		@ frame_needed = 0, uses_anonymous_args = 0
 353 0000 08B5     		push	{r3, lr}
 354              		.cfi_def_cfa_offset 8
 355              		.cfi_offset 3, -8
 356              		.cfi_offset 14, -4
  89:d1302.c       ****     SPIM_IO_RD_Addr(0x8C);
 357              		.loc 1 89 0
 358 0002 8C20     		movs	r0, #140
 359 0004 FFF7FEFF 		bl	SPIM_IO_RD_Addr
 360              	.LVL44:
  90:d1302.c       ****     uint8 resp = SPIM_IO_RD_Data();
 361              		.loc 1 90 0
 362 0008 FFF7FEFF 		bl	SPIM_IO_RD_Data
 363              	.LVL45:
  91:d1302.c       ****     uint8 y_0 = (resp&0x0f);
 364              		.loc 1 91 0
 365 000c 00F00F01 		and	r1, r0, #15
ARM GAS  C:\Users\David\AppData\Local\Temp\ccyyjPFc.s 			page 9


 366              	.LVL46:
  92:d1302.c       ****     uint8 y_10 = (resp&0xf0) >> 4;
 367              		.loc 1 92 0
 368 0010 C0F30713 		ubfx	r3, r0, #4, #8
 369              	.LVL47:
  93:d1302.c       ****     return (y_10*10+y_0)+2000;
 370              		.loc 1 93 0
 371 0014 03EB8303 		add	r3, r3, r3, lsl #2
 372              	.LVL48:
 373 0018 5A00     		lsls	r2, r3, #1
 374 001a 8818     		adds	r0, r1, r2
 375              	.LVL49:
  94:d1302.c       **** }
 376              		.loc 1 94 0
 377 001c 00F5FA60 		add	r0, r0, #2000
 378 0020 08BD     		pop	{r3, pc}
 379              		.cfi_endproc
 380              	.LFE70:
 381              		.size	get_year, .-get_year
 382 0022 00BF     		.section	.text.print_time_string,"ax",%progbits
 383              		.align	2
 384              		.global	print_time_string
 385              		.thumb
 386              		.thumb_func
 387              		.type	print_time_string, %function
 388              	print_time_string:
 389              	.LFB71:
  95:d1302.c       **** 
  96:d1302.c       **** 
  97:d1302.c       **** void print_time_string(char* str) {    
 390              		.loc 1 97 0
 391              		.cfi_startproc
 392              		@ args = 0, pretend = 0, frame = 0
 393              		@ frame_needed = 0, uses_anonymous_args = 0
 394              	.LVL50:
 395 0000 38B5     		push	{r3, r4, r5, lr}
 396              		.cfi_def_cfa_offset 16
 397              		.cfi_offset 3, -16
 398              		.cfi_offset 4, -12
 399              		.cfi_offset 5, -8
 400              		.cfi_offset 14, -4
 401 0002 0446     		mov	r4, r0
  98:d1302.c       ****     sprintf(str, "%02d:%02d",get_hour(), get_minute());
 402              		.loc 1 98 0
 403 0004 FFF7FEFF 		bl	get_hour
 404              	.LVL51:
 405 0008 0546     		mov	r5, r0
 406 000a FFF7FEFF 		bl	get_minute
 407              	.LVL52:
 408 000e 0346     		mov	r3, r0
 409 0010 2A46     		mov	r2, r5
 410 0012 0249     		ldr	r1, .L23
 411 0014 2046     		mov	r0, r4
 412 0016 FFF7FEFF 		bl	sprintf
 413              	.LVL53:
 414 001a 38BD     		pop	{r3, r4, r5, pc}
 415              	.LVL54:
ARM GAS  C:\Users\David\AppData\Local\Temp\ccyyjPFc.s 			page 10


 416              	.L24:
 417              		.align	2
 418              	.L23:
 419 001c 00000000 		.word	.LC0
 420              		.cfi_endproc
 421              	.LFE71:
 422              		.size	print_time_string, .-print_time_string
 423              		.section	.text.print_date,"ax",%progbits
 424              		.align	2
 425              		.global	print_date
 426              		.thumb
 427              		.thumb_func
 428              		.type	print_date, %function
 429              	print_date:
 430              	.LFB72:
  99:d1302.c       **** }
 100:d1302.c       **** 
 101:d1302.c       **** void print_date(char* str) {
 431              		.loc 1 101 0
 432              		.cfi_startproc
 433              		@ args = 0, pretend = 0, frame = 0
 434              		@ frame_needed = 0, uses_anonymous_args = 0
 435              	.LVL55:
 436 0000 70B5     		push	{r4, r5, r6, lr}
 437              		.cfi_def_cfa_offset 16
 438              		.cfi_offset 4, -16
 439              		.cfi_offset 5, -12
 440              		.cfi_offset 6, -8
 441              		.cfi_offset 14, -4
 442 0002 82B0     		sub	sp, sp, #8
 443              		.cfi_def_cfa_offset 24
 444 0004 0446     		mov	r4, r0
 102:d1302.c       ****     sprintf(str, "%02d-%02d-%02d",get_year(), get_month(), get_day());
 445              		.loc 1 102 0
 446 0006 FFF7FEFF 		bl	get_year
 447              	.LVL56:
 448 000a 0546     		mov	r5, r0
 449 000c FFF7FEFF 		bl	get_month
 450              	.LVL57:
 451 0010 0646     		mov	r6, r0
 452 0012 FFF7FEFF 		bl	get_day
 453              	.LVL58:
 454 0016 0090     		str	r0, [sp]
 455 0018 3346     		mov	r3, r6
 456 001a 2A46     		mov	r2, r5
 457 001c 0249     		ldr	r1, .L27
 458 001e 2046     		mov	r0, r4
 459 0020 FFF7FEFF 		bl	sprintf
 460              	.LVL59:
 103:d1302.c       **** }
 461              		.loc 1 103 0
 462 0024 02B0     		add	sp, sp, #8
 463              		.cfi_def_cfa_offset 16
 464              		@ sp needed
 465 0026 70BD     		pop	{r4, r5, r6, pc}
 466              	.LVL60:
 467              	.L28:
ARM GAS  C:\Users\David\AppData\Local\Temp\ccyyjPFc.s 			page 11


 468              		.align	2
 469              	.L27:
 470 0028 0C000000 		.word	.LC1
 471              		.cfi_endproc
 472              	.LFE72:
 473              		.size	print_date, .-print_date
 474              		.section	.text.print_datetime,"ax",%progbits
 475              		.align	2
 476              		.global	print_datetime
 477              		.thumb
 478              		.thumb_func
 479              		.type	print_datetime, %function
 480              	print_datetime:
 481              	.LFB73:
 104:d1302.c       **** 
 105:d1302.c       **** void print_datetime(char* str) {
 482              		.loc 1 105 0
 483              		.cfi_startproc
 484              		@ args = 0, pretend = 0, frame = 0
 485              		@ frame_needed = 0, uses_anonymous_args = 0
 486              	.LVL61:
 487 0000 2DE9F043 		push	{r4, r5, r6, r7, r8, r9, lr}
 488              		.cfi_def_cfa_offset 28
 489              		.cfi_offset 4, -28
 490              		.cfi_offset 5, -24
 491              		.cfi_offset 6, -20
 492              		.cfi_offset 7, -16
 493              		.cfi_offset 8, -12
 494              		.cfi_offset 9, -8
 495              		.cfi_offset 14, -4
 496 0004 85B0     		sub	sp, sp, #20
 497              		.cfi_def_cfa_offset 48
 498 0006 0446     		mov	r4, r0
 106:d1302.c       ****      sprintf(str, "%02d-%02d-%02d %02d:%02d:%02d",get_year(), get_month(), get_day(), get_hour(), g
 499              		.loc 1 106 0
 500 0008 FFF7FEFF 		bl	get_year
 501              	.LVL62:
 502 000c 0546     		mov	r5, r0
 503 000e FFF7FEFF 		bl	get_month
 504              	.LVL63:
 505 0012 0646     		mov	r6, r0
 506 0014 FFF7FEFF 		bl	get_day
 507              	.LVL64:
 508 0018 0746     		mov	r7, r0
 509 001a FFF7FEFF 		bl	get_hour
 510              	.LVL65:
 511 001e 8046     		mov	r8, r0
 512 0020 FFF7FEFF 		bl	get_minute
 513              	.LVL66:
 514 0024 8146     		mov	r9, r0
 515 0026 FFF7FEFF 		bl	get_seconds
 516              	.LVL67:
 517 002a 0390     		str	r0, [sp, #12]
 518 002c CDF80890 		str	r9, [sp, #8]
 519 0030 CDF80480 		str	r8, [sp, #4]
 520 0034 0097     		str	r7, [sp]
 521 0036 3346     		mov	r3, r6
ARM GAS  C:\Users\David\AppData\Local\Temp\ccyyjPFc.s 			page 12


 522 0038 2A46     		mov	r2, r5
 523 003a 0349     		ldr	r1, .L31
 524 003c 2046     		mov	r0, r4
 525 003e FFF7FEFF 		bl	sprintf
 526              	.LVL68:
 107:d1302.c       **** }...
 527              		.loc 1 107 0
 528 0042 05B0     		add	sp, sp, #20
 529              		.cfi_def_cfa_offset 28
 530              		@ sp needed
 531 0044 BDE8F083 		pop	{r4, r5, r6, r7, r8, r9, pc}
 532              	.LVL69:
 533              	.L32:
 534              		.align	2
 535              	.L31:
 536 0048 1C000000 		.word	.LC2
 537              		.cfi_endproc
 538              	.LFE73:
 539              		.size	print_datetime, .-print_datetime
 540              		.section	.rodata.str1.4,"aMS",%progbits,1
 541              		.align	2
 542              	.LC0:
 543 0000 25303264 		.ascii	"%02d:%02d\000"
 543      3A253032 
 543      6400
 544 000a 0000     		.space	2
 545              	.LC1:
 546 000c 25303264 		.ascii	"%02d-%02d-%02d\000"
 546      2D253032 
 546      642D2530 
 546      326400
 547 001b 00       		.space	1
 548              	.LC2:
 549 001c 25303264 		.ascii	"%02d-%02d-%02d %02d:%02d:%02d\000"
 549      2D253032 
 549      642D2530 
 549      32642025 
 549      3032643A 
 550              		.text
 551              	.Letext0:
 552              		.file 2 "c:\\program files (x86)\\cypress\\psoc creator\\4.4\\psoc creator\\import\\gnu\\arm\\5.4.
 553              		.file 3 "c:\\program files (x86)\\cypress\\psoc creator\\4.4\\psoc creator\\import\\gnu\\arm\\5.4.
 554              		.file 4 "Generated_Source\\PSoC5/cytypes.h"
 555              		.file 5 "<built-in>"
 556              		.file 6 "Generated_Source\\PSoC5/SS.h"
 557              		.file 7 "Generated_Source\\PSoC5/SPIM.h"
 558              		.file 8 "Generated_Source\\PSoC5/core_cm3.h"