ARM GAS  C:\Users\David\AppData\Local\Temp\cclPnig6.s 			page 1


   1              		.syntax unified
   2              		.cpu cortex-m3
   3              		.fpu softvfp
   4              		.eabi_attribute 20, 1
   5              		.eabi_attribute 21, 1
   6              		.eabi_attribute 23, 3
   7              		.eabi_attribute 24, 1
   8              		.eabi_attribute 25, 1
   9              		.eabi_attribute 26, 1
  10              		.eabi_attribute 30, 1
  11              		.eabi_attribute 34, 1
  12              		.eabi_attribute 18, 4
  13              		.thumb
  14              		.syntax unified
  15              		.file	"EEPROM_Helper.c"
  16              		.text
  17              	.Ltext0:
  18              		.cfi_sections	.debug_frame
  19              		.section	.text.StoreInt8,"ax",%progbits
  20              		.align	2
  21              		.global	StoreInt8
  22              		.thumb
  23              		.thumb_func
  24              		.type	StoreInt8, %function
  25              	StoreInt8:
  26              	.LFB63:
  27              		.file 1 "EEPROM_Helper.c"
   1:EEPROM_Helper.c **** /* ========================================
   2:EEPROM_Helper.c **** 
   3:EEPROM_Helper.c ****  *
   4:EEPROM_Helper.c ****  * ========================================
   5:EEPROM_Helper.c **** */
   6:EEPROM_Helper.c **** 
   7:EEPROM_Helper.c **** 
   8:EEPROM_Helper.c **** #include "project.h"
   9:EEPROM_Helper.c **** 
  10:EEPROM_Helper.c **** 
  11:EEPROM_Helper.c **** void StoreInt8(uint8 data, uint16 addr) {
  28              		.loc 1 11 0
  29              		.cfi_startproc
  30              		@ args = 0, pretend = 0, frame = 0
  31              		@ frame_needed = 0, uses_anonymous_args = 0
  32              	.LVL0:
  33 0000 08B5     		push	{r3, lr}
  34              		.cfi_def_cfa_offset 8
  35              		.cfi_offset 3, -8
  36              		.cfi_offset 14, -4
  12:EEPROM_Helper.c ****     EEPROM_WriteByte(data, addr);
  37              		.loc 1 12 0
  38 0002 FFF7FEFF 		bl	EEPROM_WriteByte
  39              	.LVL1:
  40 0006 08BD     		pop	{r3, pc}
  41              		.cfi_endproc
  42              	.LFE63:
  43              		.size	StoreInt8, .-StoreInt8
  44              		.section	.text.ReadInt8,"ax",%progbits
  45              		.align	2
ARM GAS  C:\Users\David\AppData\Local\Temp\cclPnig6.s 			page 2


  46              		.global	ReadInt8
  47              		.thumb
  48              		.thumb_func
  49              		.type	ReadInt8, %function
  50              	ReadInt8:
  51              	.LFB64:
  13:EEPROM_Helper.c **** }
  14:EEPROM_Helper.c **** 
  15:EEPROM_Helper.c **** uint8 ReadInt8(uint16 addr) {
  52              		.loc 1 15 0
  53              		.cfi_startproc
  54              		@ args = 0, pretend = 0, frame = 0
  55              		@ frame_needed = 0, uses_anonymous_args = 0
  56              	.LVL2:
  57 0000 08B5     		push	{r3, lr}
  58              		.cfi_def_cfa_offset 8
  59              		.cfi_offset 3, -8
  60              		.cfi_offset 14, -4
  16:EEPROM_Helper.c ****     return EEPROM_ReadByte(addr);
  61              		.loc 1 16 0
  62 0002 FFF7FEFF 		bl	EEPROM_ReadByte
  63              	.LVL3:
  17:EEPROM_Helper.c **** }
  64              		.loc 1 17 0
  65 0006 08BD     		pop	{r3, pc}
  66              		.cfi_endproc
  67              	.LFE64:
  68              		.size	ReadInt8, .-ReadInt8
  69              		.section	.text.StoreInt16,"ax",%progbits
  70              		.align	2
  71              		.global	StoreInt16
  72              		.thumb
  73              		.thumb_func
  74              		.type	StoreInt16, %function
  75              	StoreInt16:
  76              	.LFB65:
  18:EEPROM_Helper.c **** 
  19:EEPROM_Helper.c **** void StoreInt16(uint16 data, uint16 addr) {
  77              		.loc 1 19 0
  78              		.cfi_startproc
  79              		@ args = 0, pretend = 0, frame = 0
  80              		@ frame_needed = 0, uses_anonymous_args = 0
  81              	.LVL4:
  82 0000 38B5     		push	{r3, r4, r5, lr}
  83              		.cfi_def_cfa_offset 16
  84              		.cfi_offset 3, -16
  85              		.cfi_offset 4, -12
  86              		.cfi_offset 5, -8
  87              		.cfi_offset 14, -4
  88 0002 0C46     		mov	r4, r1
  89              	.LVL5:
  20:EEPROM_Helper.c ****     uint8 first_byte = (data&0xff00) >> 8;
  21:EEPROM_Helper.c ****     uint8 second_byte = data&0x00ff;
  90              		.loc 1 21 0
  91 0004 C5B2     		uxtb	r5, r0
  92              	.LVL6:
  22:EEPROM_Helper.c ****     EEPROM_WriteByte(first_byte, addr);
ARM GAS  C:\Users\David\AppData\Local\Temp\cclPnig6.s 			page 3


  93              		.loc 1 22 0
  94 0006 000A     		lsrs	r0, r0, #8
  95              	.LVL7:
  96 0008 FFF7FEFF 		bl	EEPROM_WriteByte
  97              	.LVL8:
  23:EEPROM_Helper.c ****     EEPROM_WriteByte(second_byte, addr+1);
  98              		.loc 1 23 0
  99 000c 611C     		adds	r1, r4, #1
 100 000e 89B2     		uxth	r1, r1
 101 0010 2846     		mov	r0, r5
 102 0012 FFF7FEFF 		bl	EEPROM_WriteByte
 103              	.LVL9:
 104 0016 38BD     		pop	{r3, r4, r5, pc}
 105              		.cfi_endproc
 106              	.LFE65:
 107              		.size	StoreInt16, .-StoreInt16
 108              		.section	.text.ReadInt16,"ax",%progbits
 109              		.align	2
 110              		.global	ReadInt16
 111              		.thumb
 112              		.thumb_func
 113              		.type	ReadInt16, %function
 114              	ReadInt16:
 115              	.LFB66:
  24:EEPROM_Helper.c **** }
  25:EEPROM_Helper.c **** 
  26:EEPROM_Helper.c **** uint16 ReadInt16(uint16 addr) {
 116              		.loc 1 26 0
 117              		.cfi_startproc
 118              		@ args = 0, pretend = 0, frame = 0
 119              		@ frame_needed = 0, uses_anonymous_args = 0
 120              	.LVL10:
 121 0000 38B5     		push	{r3, r4, r5, lr}
 122              		.cfi_def_cfa_offset 16
 123              		.cfi_offset 3, -16
 124              		.cfi_offset 4, -12
 125              		.cfi_offset 5, -8
 126              		.cfi_offset 14, -4
 127 0002 0546     		mov	r5, r0
  27:EEPROM_Helper.c ****     uint8 first_byte = EEPROM_ReadByte(addr);
 128              		.loc 1 27 0
 129 0004 FFF7FEFF 		bl	EEPROM_ReadByte
 130              	.LVL11:
 131 0008 0446     		mov	r4, r0
 132              	.LVL12:
  28:EEPROM_Helper.c ****     uint8 second_byte = EEPROM_ReadByte(addr+1);
 133              		.loc 1 28 0
 134 000a 681C     		adds	r0, r5, #1
 135 000c 80B2     		uxth	r0, r0
 136 000e FFF7FEFF 		bl	EEPROM_ReadByte
 137              	.LVL13:
  29:EEPROM_Helper.c ****     uint16 result = (first_byte << 8)|second_byte;
 138              		.loc 1 29 0
 139 0012 40EA0420 		orr	r0, r0, r4, lsl #8
 140              	.LVL14:
  30:EEPROM_Helper.c ****     return result;
  31:EEPROM_Helper.c **** }
ARM GAS  C:\Users\David\AppData\Local\Temp\cclPnig6.s 			page 4


 141              		.loc 1 31 0
 142 0016 80B2     		uxth	r0, r0
 143 0018 38BD     		pop	{r3, r4, r5, pc}
 144              		.cfi_endproc
 145              	.LFE66:
 146              		.size	ReadInt16, .-ReadInt16
 147 001a 00BF     		.section	.text.ReadInt8ArrayFromRow,"ax",%progbits
 148              		.align	2
 149              		.global	ReadInt8ArrayFromRow
 150              		.thumb
 151              		.thumb_func
 152              		.type	ReadInt8ArrayFromRow, %function
 153              	ReadInt8ArrayFromRow:
 154              	.LFB67:
  32:EEPROM_Helper.c **** 
  33:EEPROM_Helper.c **** 
  34:EEPROM_Helper.c **** /*
  35:EEPROM_Helper.c **** Kiolvas egymas utan n erteket egy sorbol
  36:EEPROM_Helper.c **** Egy sorban 16 db cim van.
  37:EEPROM_Helper.c **** */
  38:EEPROM_Helper.c **** void ReadInt8ArrayFromRow(uint8 * values, uint8 n, uint16 addr) {
 155              		.loc 1 38 0
 156              		.cfi_startproc
 157              		@ args = 0, pretend = 0, frame = 0
 158              		@ frame_needed = 0, uses_anonymous_args = 0
 159              	.LVL15:
 160 0000 F8B5     		push	{r3, r4, r5, r6, r7, lr}
 161              		.cfi_def_cfa_offset 24
 162              		.cfi_offset 3, -24
 163              		.cfi_offset 4, -20
 164              		.cfi_offset 5, -16
 165              		.cfi_offset 6, -12
 166              		.cfi_offset 7, -8
 167              		.cfi_offset 14, -4
 168 0002 0746     		mov	r7, r0
 169 0004 1646     		mov	r6, r2
  39:EEPROM_Helper.c ****    
  40:EEPROM_Helper.c ****     n = n > 16 ? 16 : n; //Egy sorban max. 16 elem lehet
 170              		.loc 1 40 0
 171 0006 1029     		cmp	r1, #16
 172 0008 28BF     		it	cs
 173 000a 1021     		movcs	r1, #16
 174              	.LVL16:
 175 000c 0D46     		mov	r5, r1
 176              	.LVL17:
 177              	.LBB2:
  41:EEPROM_Helper.c ****     for (uint8 i = 0; i < n; i++) {
 178              		.loc 1 41 0
 179 000e 0024     		movs	r4, #0
 180 0010 06E0     		b	.L10
 181              	.LVL18:
 182              	.L11:
  42:EEPROM_Helper.c ****         values[i] = EEPROM_ReadByte(addr+i);
 183              		.loc 1 42 0 discriminator 3
 184 0012 3019     		adds	r0, r6, r4
 185 0014 80B2     		uxth	r0, r0
 186 0016 FFF7FEFF 		bl	EEPROM_ReadByte
ARM GAS  C:\Users\David\AppData\Local\Temp\cclPnig6.s 			page 5


 187              	.LVL19:
 188 001a 3855     		strb	r0, [r7, r4]
  41:EEPROM_Helper.c ****     for (uint8 i = 0; i < n; i++) {
 189              		.loc 1 41 0 discriminator 3
 190 001c 0134     		adds	r4, r4, #1
 191              	.LVL20:
 192 001e E4B2     		uxtb	r4, r4
 193              	.LVL21:
 194              	.L10:
  41:EEPROM_Helper.c ****     for (uint8 i = 0; i < n; i++) {
 195              		.loc 1 41 0 is_stmt 0 discriminator 1
 196 0020 AC42     		cmp	r4, r5
 197 0022 F6D3     		bcc	.L11
 198              	.LBE2:
  43:EEPROM_Helper.c ****     }
  44:EEPROM_Helper.c **** }
 199              		.loc 1 44 0 is_stmt 1
 200 0024 F8BD     		pop	{r3, r4, r5, r6, r7, pc}
 201              		.cfi_endproc
 202              	.LFE67:
 203              		.size	ReadInt8ArrayFromRow, .-ReadInt8ArrayFromRow
 204 0026 00BF     		.section	.text.StoreInt8ArrayToRow,"ax",%progbits
 205              		.align	2
 206              		.global	StoreInt8ArrayToRow
 207              		.thumb
 208              		.thumb_func
 209              		.type	StoreInt8ArrayToRow, %function
 210              	StoreInt8ArrayToRow:
 211              	.LFB68:
  45:EEPROM_Helper.c **** 
  46:EEPROM_Helper.c **** void StoreInt8ArrayToRow(uint8 * values, uint16 addr) {
 212              		.loc 1 46 0
 213              		.cfi_startproc
 214              		@ args = 0, pretend = 0, frame = 0
 215              		@ frame_needed = 0, uses_anonymous_args = 0
 216              	.LVL22:
 217 0000 08B5     		push	{r3, lr}
 218              		.cfi_def_cfa_offset 8
 219              		.cfi_offset 3, -8
 220              		.cfi_offset 14, -4
 221              	.LVL23:
  47:EEPROM_Helper.c ****  
  48:EEPROM_Helper.c ****     uint8 row_number = addr / 16; //Az also egeszreszet veszi. Ennyiedik sor
  49:EEPROM_Helper.c ****     EEPROM_Write(values, row_number);  
 222              		.loc 1 49 0
 223 0002 C1F30711 		ubfx	r1, r1, #4, #8
 224              	.LVL24:
 225 0006 FFF7FEFF 		bl	EEPROM_Write
 226              	.LVL25:
 227 000a 08BD     		pop	{r3, pc}
 228              		.cfi_endproc
 229              	.LFE68:
 230              		.size	StoreInt8ArrayToRow, .-StoreInt8ArrayToRow
 231              		.text
 232              	.Letext0:
 233              		.file 2 "c:\\program files (x86)\\cypress\\psoc creator\\4.4\\psoc creator\\import\\gnu\\arm\\5.4.
 234              		.file 3 "c:\\program files (x86)\\cypress\\psoc creator\\4.4\\psoc creator\\import\\gnu\\arm\\5.4.
ARM GAS  C:\Users\David\AppData\Local\Temp\cclPnig6.s 			page 6


 235              		.file 4 "Generated_Source\\PSoC5/cytypes.h"
 236              		.file 5 "Generated_Source\\PSoC5/EEPROM.h"
 237              		.file 6 "Generated_Source\\PSoC5/core_cm3.h"