ARM GAS  C:\Users\David\AppData\Local\Temp\ccDSdk2u.s 			page 1


   1              		.syntax unified
   2              		.cpu cortex-m3
   3              		.fpu softvfp
   4              		.eabi_attribute 20, 1
   5              		.eabi_attribute 21, 1
   6              		.eabi_attribute 23, 3
   7              		.eabi_attribute 24, 1
   8              		.eabi_attribute 25, 1
   9              		.eabi_attribute 26, 1
  10              		.eabi_attribute 30, 1
  11              		.eabi_attribute 34, 1
  12              		.eabi_attribute 18, 4
  13              		.thumb
  14              		.syntax unified
  15              		.file	"ESP_API.c"
  16              		.text
  17              	.Ltext0:
  18              		.cfi_sections	.debug_frame
  19              		.section	.text.isNumberic,"ax",%progbits
  20              		.align	2
  21              		.global	isNumberic
  22              		.thumb
  23              		.thumb_func
  24              		.type	isNumberic, %function
  25              	isNumberic:
  26              	.LFB63:
  27              		.file 1 "ESP_API.c"
   1:ESP_API.c     **** 
   2:ESP_API.c     **** 
   3:ESP_API.c     **** #include "project.h"
   4:ESP_API.c     **** #include "TaskFIFO.h"
   5:ESP_API.c     **** #include "ds1302.h"
   6:ESP_API.c     **** #include "GSMHandler.h"
   7:ESP_API.c     **** #include "SettingsHelper.h"
   8:ESP_API.c     **** #include "main.h"
   9:ESP_API.c     **** 
  10:ESP_API.c     **** char num_buffer[6];
  11:ESP_API.c     **** char lastNonNum = 0;
  12:ESP_API.c     **** 
  13:ESP_API.c     **** uint8 cmd_index = 0;
  14:ESP_API.c     **** 
  15:ESP_API.c     **** uint8 isNumberic(uint8 d) {
  28              		.loc 1 15 0
  29              		.cfi_startproc
  30              		@ args = 0, pretend = 0, frame = 0
  31              		@ frame_needed = 0, uses_anonymous_args = 0
  32              		@ link register save eliminated.
  33              	.LVL0:
  16:ESP_API.c     **** return (d == '0'  || d == '1' || d == '2' || d == '3' || d == '4' || d == '5' || d == '6' 
  17:ESP_API.c     ****     || d == '7'  || d == '8'  || d == '9') ? 1 : 0;
  34              		.loc 1 17 0
  35 0000 3038     		subs	r0, r0, #48
  36              	.LVL1:
  37 0002 C0B2     		uxtb	r0, r0
  18:ESP_API.c     **** }
  38              		.loc 1 18 0
  39 0004 0928     		cmp	r0, #9
ARM GAS  C:\Users\David\AppData\Local\Temp\ccDSdk2u.s 			page 2


  40 0006 8CBF     		ite	hi
  41 0008 0020     		movhi	r0, #0
  42 000a 0120     		movls	r0, #1
  43 000c 7047     		bx	lr
  44              		.cfi_endproc
  45              	.LFE63:
  46              		.size	isNumberic, .-isNumberic
  47 000e 00BF     		.section	.text.readNumFromCommandUntilNonNum,"ax",%progbits
  48              		.align	2
  49              		.global	readNumFromCommandUntilNonNum
  50              		.thumb
  51              		.thumb_func
  52              		.type	readNumFromCommandUntilNonNum, %function
  53              	readNumFromCommandUntilNonNum:
  54              	.LFB64:
  19:ESP_API.c     **** 
  20:ESP_API.c     **** int16 readNumFromCommandUntilNonNum() {
  55              		.loc 1 20 0
  56              		.cfi_startproc
  57              		@ args = 0, pretend = 0, frame = 0
  58              		@ frame_needed = 0, uses_anonymous_args = 0
  59 0000 38B5     		push	{r3, r4, r5, lr}
  60              		.cfi_def_cfa_offset 16
  61              		.cfi_offset 3, -16
  62              		.cfi_offset 4, -12
  63              		.cfi_offset 5, -8
  64              		.cfi_offset 14, -4
  21:ESP_API.c     ****     lastNonNum = 0;
  65              		.loc 1 21 0
  66 0002 0025     		movs	r5, #0
  67 0004 174B     		ldr	r3, .L11
  68 0006 1D70     		strb	r5, [r3]
  69              	.LVL2:
  22:ESP_API.c     ****     uint8 num_ind = 0;   
  23:ESP_API.c     ****     while (cmd_index < 255 && command_buffer[cmd_index] != '\0') {
  70              		.loc 1 23 0
  71 0008 16E0     		b	.L3
  72              	.LVL3:
  73              	.L7:
  74              	.LBB2:
  24:ESP_API.c     ****       char next = command_buffer[cmd_index++];
  75              		.loc 1 24 0
  76 000a 0133     		adds	r3, r3, #1
  77 000c 154A     		ldr	r2, .L11
  78 000e 5370     		strb	r3, [r2, #1]
  79              	.LVL4:
  25:ESP_API.c     ****     
  26:ESP_API.c     ****       if (isNumberic(next) == 1) {
  80              		.loc 1 26 0
  81 0010 2046     		mov	r0, r4
  82 0012 FFF7FEFF 		bl	isNumberic
  83              	.LVL5:
  84 0016 0128     		cmp	r0, #1
  85 0018 04D1     		bne	.L4
  27:ESP_API.c     ****         num_buffer[num_ind++] = next;
  86              		.loc 1 27 0
  87 001a 6B1C     		adds	r3, r5, #1
ARM GAS  C:\Users\David\AppData\Local\Temp\ccDSdk2u.s 			page 3


  88              	.LVL6:
  89 001c 124A     		ldr	r2, .L11+4
  90 001e 5455     		strb	r4, [r2, r5]
  91 0020 DDB2     		uxtb	r5, r3
  92 0022 09E0     		b	.L3
  93              	.LVL7:
  94              	.L4:
  28:ESP_API.c     ****       }
  29:ESP_API.c     ****       else {
  30:ESP_API.c     ****         lastNonNum = next;
  95              		.loc 1 30 0
  96 0024 0F4B     		ldr	r3, .L11
  97 0026 1C70     		strb	r4, [r3]
  31:ESP_API.c     ****         if (num_ind == 0)
  98              		.loc 1 31 0
  99 0028 B5B1     		cbz	r5, .L8
  32:ESP_API.c     ****           return -1;
  33:ESP_API.c     ****         num_buffer[num_ind] = '\0';
 100              		.loc 1 33 0
 101 002a 0F48     		ldr	r0, .L11+4
 102 002c 0023     		movs	r3, #0
 103 002e 4355     		strb	r3, [r0, r5]
  34:ESP_API.c     ****         return toInt(num_buffer);
 104              		.loc 1 34 0
 105 0030 FFF7FEFF 		bl	toInt
 106              	.LVL8:
 107 0034 00B2     		sxth	r0, r0
 108 0036 38BD     		pop	{r3, r4, r5, pc}
 109              	.LVL9:
 110              	.L3:
 111              	.LBE2:
  23:ESP_API.c     ****       char next = command_buffer[cmd_index++];
 112              		.loc 1 23 0
 113 0038 0A4B     		ldr	r3, .L11
 114 003a 5B78     		ldrb	r3, [r3, #1]	@ zero_extendqisi2
 115 003c FF2B     		cmp	r3, #255
 116 003e 03D0     		beq	.L6
  23:ESP_API.c     ****       char next = command_buffer[cmd_index++];
 117              		.loc 1 23 0 is_stmt 0 discriminator 1
 118 0040 0A4A     		ldr	r2, .L11+8
 119 0042 D45C     		ldrb	r4, [r2, r3]	@ zero_extendqisi2
 120 0044 002C     		cmp	r4, #0
 121 0046 E0D1     		bne	.L7
 122              	.L6:
  35:ESP_API.c     ****       }
  36:ESP_API.c     ****     }
  37:ESP_API.c     ****     if (num_ind == 0)
 123              		.loc 1 37 0 is_stmt 1
 124 0048 4DB1     		cbz	r5, .L9
  38:ESP_API.c     ****           return -1;
  39:ESP_API.c     ****     num_buffer[num_ind] = '\0';
 125              		.loc 1 39 0
 126 004a 0748     		ldr	r0, .L11+4
 127 004c 0023     		movs	r3, #0
 128 004e 4355     		strb	r3, [r0, r5]
  40:ESP_API.c     ****     return toInt(num_buffer);
 129              		.loc 1 40 0
ARM GAS  C:\Users\David\AppData\Local\Temp\ccDSdk2u.s 			page 4


 130 0050 FFF7FEFF 		bl	toInt
 131              	.LVL10:
 132 0054 00B2     		sxth	r0, r0
 133 0056 38BD     		pop	{r3, r4, r5, pc}
 134              	.LVL11:
 135              	.L8:
 136              	.LBB3:
  32:ESP_API.c     ****         num_buffer[num_ind] = '\0';
 137              		.loc 1 32 0
 138 0058 4FF0FF30 		mov	r0, #-1
 139 005c 38BD     		pop	{r3, r4, r5, pc}
 140              	.LVL12:
 141              	.L9:
 142              	.LBE3:
  38:ESP_API.c     ****           return -1;
 143              		.loc 1 38 0
 144 005e 4FF0FF30 		mov	r0, #-1
  41:ESP_API.c     **** }
 145              		.loc 1 41 0
 146 0062 38BD     		pop	{r3, r4, r5, pc}
 147              	.LVL13:
 148              	.L12:
 149              		.align	2
 150              	.L11:
 151 0064 00000000 		.word	.LANCHOR0
 152 0068 00000000 		.word	num_buffer
 153 006c 00000000 		.word	command_buffer
 154              		.cfi_endproc
 155              	.LFE64:
 156              		.size	readNumFromCommandUntilNonNum, .-readNumFromCommandUntilNonNum
 157              		.section	.text.getSysTime,"ax",%progbits
 158              		.align	2
 159              		.global	getSysTime
 160              		.thumb
 161              		.thumb_func
 162              		.type	getSysTime, %function
 163              	getSysTime:
 164              	.LFB65:
  42:ESP_API.c     **** 
  43:ESP_API.c     **** 
  44:ESP_API.c     **** void getSysTime() {
 165              		.loc 1 44 0
 166              		.cfi_startproc
 167              		@ args = 0, pretend = 0, frame = 24
 168              		@ frame_needed = 0, uses_anonymous_args = 0
 169 0000 00B5     		push	{lr}
 170              		.cfi_def_cfa_offset 4
 171              		.cfi_offset 14, -4
 172 0002 87B0     		sub	sp, sp, #28
 173              		.cfi_def_cfa_offset 32
  45:ESP_API.c     ****     char str[20];
  46:ESP_API.c     ****     print_datetime(str);
 174              		.loc 1 46 0
 175 0004 01A8     		add	r0, sp, #4
 176 0006 FFF7FEFF 		bl	print_datetime
 177              	.LVL14:
  47:ESP_API.c     ****     UART_ESP_PutString(str);
ARM GAS  C:\Users\David\AppData\Local\Temp\ccDSdk2u.s 			page 5


 178              		.loc 1 47 0
 179 000a 01A8     		add	r0, sp, #4
 180 000c FFF7FEFF 		bl	UART_ESP_PutString
 181              	.LVL15:
  48:ESP_API.c     **** }
 182              		.loc 1 48 0
 183 0010 07B0     		add	sp, sp, #28
 184              		.cfi_def_cfa_offset 4
 185              		@ sp needed
 186 0012 5DF804FB 		ldr	pc, [sp], #4
 187              		.cfi_endproc
 188              	.LFE65:
 189              		.size	getSysTime, .-getSysTime
 190 0016 00BF     		.section	.text.beepCommand,"ax",%progbits
 191              		.align	2
 192              		.global	beepCommand
 193              		.thumb
 194              		.thumb_func
 195              		.type	beepCommand, %function
 196              	beepCommand:
 197              	.LFB66:
  49:ESP_API.c     **** 
  50:ESP_API.c     **** void beepCommand() { //Csipogas -  C400 1000 / frekvencia hossz
 198              		.loc 1 50 0
 199              		.cfi_startproc
 200              		@ args = 0, pretend = 0, frame = 0
 201              		@ frame_needed = 0, uses_anonymous_args = 0
 202 0000 10B5     		push	{r4, lr}
 203              		.cfi_def_cfa_offset 8
 204              		.cfi_offset 4, -8
 205              		.cfi_offset 14, -4
  51:ESP_API.c     ****     cmd_index = 0;
 206              		.loc 1 51 0
 207 0002 0022     		movs	r2, #0
 208 0004 0D4B     		ldr	r3, .L20
 209 0006 5A70     		strb	r2, [r3, #1]
  52:ESP_API.c     ****     int16 freq = readNumFromCommandUntilNonNum();
 210              		.loc 1 52 0
 211 0008 FFF7FEFF 		bl	readNumFromCommandUntilNonNum
 212              	.LVL16:
 213 000c 0446     		mov	r4, r0
 214              	.LVL17:
  53:ESP_API.c     ****     int16 duration = readNumFromCommandUntilNonNum();
 215              		.loc 1 53 0
 216 000e FFF7FEFF 		bl	readNumFromCommandUntilNonNum
 217              	.LVL18:
  54:ESP_API.c     ****     
  55:ESP_API.c     ****     
  56:ESP_API.c     ****     if (freq < 0) {
 218              		.loc 1 56 0
 219 0012 002C     		cmp	r4, #0
 220 0014 03DA     		bge	.L16
  57:ESP_API.c     ****       UART_ESP_PutString("Not valid command! #1");
 221              		.loc 1 57 0
 222 0016 0A48     		ldr	r0, .L20+4
 223              	.LVL19:
 224 0018 FFF7FEFF 		bl	UART_ESP_PutString
ARM GAS  C:\Users\David\AppData\Local\Temp\ccDSdk2u.s 			page 6


 225              	.LVL20:
  58:ESP_API.c     ****       return;
 226              		.loc 1 58 0
 227 001c 10BD     		pop	{r4, pc}
 228              	.LVL21:
 229              	.L16:
  59:ESP_API.c     ****     }
  60:ESP_API.c     ****     
  61:ESP_API.c     ****     if (duration < 0) {
 230              		.loc 1 61 0
 231 001e 0028     		cmp	r0, #0
 232 0020 03DA     		bge	.L18
  62:ESP_API.c     ****         UART_ESP_PutString("Not valid command! #2");
 233              		.loc 1 62 0
 234 0022 0848     		ldr	r0, .L20+8
 235              	.LVL22:
 236 0024 FFF7FEFF 		bl	UART_ESP_PutString
 237              	.LVL23:
  63:ESP_API.c     ****         return;
 238              		.loc 1 63 0
 239 0028 10BD     		pop	{r4, pc}
 240              	.LVL24:
 241              	.L18:
  64:ESP_API.c     ****     }
  65:ESP_API.c     ****     
  66:ESP_API.c     ****     tone(freq, duration);
 242              		.loc 1 66 0
 243 002a 81B2     		uxth	r1, r0
 244 002c A0B2     		uxth	r0, r4
 245              	.LVL25:
 246 002e FFF7FEFF 		bl	tone
 247              	.LVL26:
  67:ESP_API.c     ****     UART_ESP_PutChar('1');
 248              		.loc 1 67 0
 249 0032 3120     		movs	r0, #49
 250 0034 FFF7FEFF 		bl	UART_ESP_PutChar
 251              	.LVL27:
 252 0038 10BD     		pop	{r4, pc}
 253              	.LVL28:
 254              	.L21:
 255 003a 00BF     		.align	2
 256              	.L20:
 257 003c 00000000 		.word	.LANCHOR0
 258 0040 00000000 		.word	.LC0
 259 0044 18000000 		.word	.LC1
 260              		.cfi_endproc
 261              	.LFE66:
 262              		.size	beepCommand, .-beepCommand
 263              		.section	.text.lcdCommand,"ax",%progbits
 264              		.align	2
 265              		.global	lcdCommand
 266              		.thumb
 267              		.thumb_func
 268              		.type	lcdCommand, %function
 269              	lcdCommand:
 270              	.LFB67:
  68:ESP_API.c     **** }
ARM GAS  C:\Users\David\AppData\Local\Temp\ccDSdk2u.s 			page 7


  69:ESP_API.c     **** 
  70:ESP_API.c     **** char first_row[16+1];
  71:ESP_API.c     **** char second_row[16+1];
  72:ESP_API.c     **** 
  73:ESP_API.c     **** void lcdCommand() {//LCD-re iras - L16 Szep napunk van ma / hossz + uzenet tordel, ha nem eleg
 271              		.loc 1 73 0
 272              		.cfi_startproc
 273              		@ args = 0, pretend = 0, frame = 0
 274              		@ frame_needed = 0, uses_anonymous_args = 0
 275 0000 38B5     		push	{r3, r4, r5, lr}
 276              		.cfi_def_cfa_offset 16
 277              		.cfi_offset 3, -16
 278              		.cfi_offset 4, -12
 279              		.cfi_offset 5, -8
 280              		.cfi_offset 14, -4
  74:ESP_API.c     ****     cmd_index = 0;
 281              		.loc 1 74 0
 282 0002 0022     		movs	r2, #0
 283 0004 224B     		ldr	r3, .L34
 284 0006 5A70     		strb	r2, [r3, #1]
  75:ESP_API.c     ****     int16 len = readNumFromCommandUntilNonNum();
 285              		.loc 1 75 0
 286 0008 FFF7FEFF 		bl	readNumFromCommandUntilNonNum
 287              	.LVL29:
  76:ESP_API.c     ****     if (len <= 0 || lastNonNum != ' ') {
 288              		.loc 1 76 0
 289 000c 0028     		cmp	r0, #0
 290              	.LVL30:
 291 000e 03DD     		ble	.L23
 292              		.loc 1 76 0 is_stmt 0 discriminator 1
 293 0010 1F4B     		ldr	r3, .L34
 294 0012 1B78     		ldrb	r3, [r3]	@ zero_extendqisi2
 295 0014 202B     		cmp	r3, #32
 296 0016 03D0     		beq	.L24
 297              	.L23:
  77:ESP_API.c     ****       UART_ESP_PutString("Not valid command! #1");
 298              		.loc 1 77 0 is_stmt 1
 299 0018 1E48     		ldr	r0, .L34+4
 300 001a FFF7FEFF 		bl	UART_ESP_PutString
 301              	.LVL31:
  78:ESP_API.c     ****       return;
 302              		.loc 1 78 0
 303 001e 38BD     		pop	{r3, r4, r5, pc}
 304              	.L24:
  79:ESP_API.c     ****     }
  80:ESP_API.c     ****     
  81:ESP_API.c     ****      uint8 row_len = len > 16 ? 16 : len;
 305              		.loc 1 81 0
 306 0020 0546     		mov	r5, r0
 307 0022 1028     		cmp	r0, #16
 308 0024 A8BF     		it	ge
 309 0026 1025     		movge	r5, #16
 310 0028 EDB2     		uxtb	r5, r5
 311              	.LVL32:
 312              	.LBB4:
  82:ESP_API.c     ****      for (uint8 i = 0; i < row_len; i++) {
 313              		.loc 1 82 0
ARM GAS  C:\Users\David\AppData\Local\Temp\ccDSdk2u.s 			page 8


 314 002a 0023     		movs	r3, #0
 315 002c 09E0     		b	.L26
 316              	.LVL33:
 317              	.L27:
  83:ESP_API.c     ****        first_row[i] = command_buffer[cmd_index++];
 318              		.loc 1 83 0 discriminator 3
 319 002e 1849     		ldr	r1, .L34
 320 0030 4A78     		ldrb	r2, [r1, #1]	@ zero_extendqisi2
 321 0032 541C     		adds	r4, r2, #1
 322 0034 4C70     		strb	r4, [r1, #1]
 323 0036 1849     		ldr	r1, .L34+8
 324 0038 895C     		ldrb	r1, [r1, r2]	@ zero_extendqisi2
 325 003a 184A     		ldr	r2, .L34+12
 326 003c D154     		strb	r1, [r2, r3]
  82:ESP_API.c     ****      for (uint8 i = 0; i < row_len; i++) {
 327              		.loc 1 82 0 discriminator 3
 328 003e 0133     		adds	r3, r3, #1
 329              	.LVL34:
 330 0040 DBB2     		uxtb	r3, r3
 331              	.LVL35:
 332              	.L26:
  82:ESP_API.c     ****      for (uint8 i = 0; i < row_len; i++) {
 333              		.loc 1 82 0 is_stmt 0 discriminator 1
 334 0042 AB42     		cmp	r3, r5
 335 0044 F3D3     		bcc	.L27
 336              	.LBE4:
  84:ESP_API.c     ****     }
  85:ESP_API.c     ****     first_row[row_len] = '\0';
 337              		.loc 1 85 0 is_stmt 1
 338 0046 0022     		movs	r2, #0
 339 0048 144B     		ldr	r3, .L34+12
 340              	.LVL36:
 341 004a 5A55     		strb	r2, [r3, r5]
  86:ESP_API.c     ****     if (len > 16) {
 342              		.loc 1 86 0
 343 004c 1028     		cmp	r0, #16
 344 004e 1ADD     		ble	.L28
  87:ESP_API.c     ****     row_len = len > 32 ? 16 : len-16; 
 345              		.loc 1 87 0
 346 0050 2028     		cmp	r0, #32
 347 0052 02DC     		bgt	.L32
 348              		.loc 1 87 0 is_stmt 0 discriminator 1
 349 0054 1038     		subs	r0, r0, #16
 350 0056 C4B2     		uxtb	r4, r0
 351 0058 00E0     		b	.L29
 352              	.L32:
 353              		.loc 1 87 0
 354 005a 1024     		movs	r4, #16
 355              	.L29:
 356              	.LVL37:
 357              	.LBB5:
  88:ESP_API.c     ****         for (uint8 i = 0; i < row_len; i++) {
 358              		.loc 1 88 0 is_stmt 1 discriminator 4
 359 005c 0023     		movs	r3, #0
 360 005e 09E0     		b	.L30
 361              	.LVL38:
 362              	.L31:
ARM GAS  C:\Users\David\AppData\Local\Temp\ccDSdk2u.s 			page 9


  89:ESP_API.c     ****            second_row[i] = command_buffer[cmd_index++];
 363              		.loc 1 89 0 discriminator 3
 364 0060 0B49     		ldr	r1, .L34
 365 0062 4A78     		ldrb	r2, [r1, #1]	@ zero_extendqisi2
 366 0064 501C     		adds	r0, r2, #1
 367 0066 4870     		strb	r0, [r1, #1]
 368 0068 0B49     		ldr	r1, .L34+8
 369 006a 895C     		ldrb	r1, [r1, r2]	@ zero_extendqisi2
 370 006c 0C4A     		ldr	r2, .L34+16
 371 006e D154     		strb	r1, [r2, r3]
  88:ESP_API.c     ****         for (uint8 i = 0; i < row_len; i++) {
 372              		.loc 1 88 0 discriminator 3
 373 0070 0133     		adds	r3, r3, #1
 374              	.LVL39:
 375 0072 DBB2     		uxtb	r3, r3
 376              	.LVL40:
 377              	.L30:
  88:ESP_API.c     ****         for (uint8 i = 0; i < row_len; i++) {
 378              		.loc 1 88 0 is_stmt 0 discriminator 1
 379 0074 A342     		cmp	r3, r4
 380 0076 F3D3     		bcc	.L31
 381              	.LBE5:
  90:ESP_API.c     ****         }
  91:ESP_API.c     ****         second_row[row_len] = '\0';
 382              		.loc 1 91 0 is_stmt 1
 383 0078 0949     		ldr	r1, .L34+16
 384 007a 0023     		movs	r3, #0
 385              	.LVL41:
 386 007c 0B55     		strb	r3, [r1, r4]
  92:ESP_API.c     ****         print_lines_to_lcd(first_row, second_row);
 387              		.loc 1 92 0
 388 007e 0748     		ldr	r0, .L34+12
 389 0080 FFF7FEFF 		bl	print_lines_to_lcd
 390              	.LVL42:
 391 0084 38BD     		pop	{r3, r4, r5, pc}
 392              	.LVL43:
 393              	.L28:
  93:ESP_API.c     ****     }
  94:ESP_API.c     ****     else {
  95:ESP_API.c     ****         print_lines_to_lcd(first_row,"                ");
 394              		.loc 1 95 0
 395 0086 0749     		ldr	r1, .L34+20
 396 0088 0448     		ldr	r0, .L34+12
 397 008a FFF7FEFF 		bl	print_lines_to_lcd
 398              	.LVL44:
 399 008e 38BD     		pop	{r3, r4, r5, pc}
 400              	.LVL45:
 401              	.L35:
 402              		.align	2
 403              	.L34:
 404 0090 00000000 		.word	.LANCHOR0
 405 0094 00000000 		.word	.LC0
 406 0098 00000000 		.word	command_buffer
 407 009c 00000000 		.word	first_row
 408 00a0 00000000 		.word	second_row
 409 00a4 30000000 		.word	.LC2
 410              		.cfi_endproc
ARM GAS  C:\Users\David\AppData\Local\Temp\ccDSdk2u.s 			page 10


 411              	.LFE67:
 412              		.size	lcdCommand, .-lcdCommand
 413              		.section	.text.smsCommand,"ax",%progbits
 414              		.align	2
 415              		.global	smsCommand
 416              		.thumb
 417              		.thumb_func
 418              		.type	smsCommand, %function
 419              	smsCommand:
 420              	.LFB68:
  96:ESP_API.c     ****     }
  97:ESP_API.c     **** }
  98:ESP_API.c     **** 
  99:ESP_API.c     **** char full_phone_num[13];
 100:ESP_API.c     **** char sms_message[221];
 101:ESP_API.c     **** 
 102:ESP_API.c     **** void smsCommand() {//SMS kuldes - K702668307 16 Szep napunk van. / szam 9 jegy + uzenet hossza + uz
 421              		.loc 1 102 0
 422              		.cfi_startproc
 423              		@ args = 0, pretend = 0, frame = 16
 424              		@ frame_needed = 0, uses_anonymous_args = 0
 425 0000 70B5     		push	{r4, r5, r6, lr}
 426              		.cfi_def_cfa_offset 16
 427              		.cfi_offset 4, -16
 428              		.cfi_offset 5, -12
 429              		.cfi_offset 6, -8
 430              		.cfi_offset 14, -4
 431 0002 84B0     		sub	sp, sp, #16
 432              		.cfi_def_cfa_offset 32
 103:ESP_API.c     ****     cmd_index = 0;
 433              		.loc 1 103 0
 434 0004 0025     		movs	r5, #0
 435 0006 314B     		ldr	r3, .L51
 436 0008 5D70     		strb	r5, [r3, #1]
 437              	.LVL46:
 104:ESP_API.c     ****     char phone_num[10];
 105:ESP_API.c     ****     uint8 phone_num_ind = 0;
 106:ESP_API.c     ****     while (command_buffer[cmd_index] != '\0') {
 438              		.loc 1 106 0
 439 000a 1EE0     		b	.L37
 440              	.LVL47:
 441              	.L42:
 107:ESP_API.c     ****         if (isNumberic(command_buffer[cmd_index])) {
 442              		.loc 1 107 0
 443 000c 2046     		mov	r0, r4
 444 000e FFF7FEFF 		bl	isNumberic
 445              	.LVL48:
 446 0012 48B1     		cbz	r0, .L38
 108:ESP_API.c     ****              phone_num[phone_num_ind++] = command_buffer[cmd_index++];
 447              		.loc 1 108 0
 448 0014 6B1C     		adds	r3, r5, #1
 449              	.LVL49:
 450 0016 0136     		adds	r6, r6, #1
 451 0018 2C4A     		ldr	r2, .L51
 452 001a 5670     		strb	r6, [r2, #1]
 453 001c 04AA     		add	r2, sp, #16
 454 001e 1544     		add	r5, r5, r2
ARM GAS  C:\Users\David\AppData\Local\Temp\ccDSdk2u.s 			page 11


 455 0020 05F80C4C 		strb	r4, [r5, #-12]
 456 0024 DDB2     		uxtb	r5, r3
 457 0026 0AE0     		b	.L39
 458              	.LVL50:
 459              	.L38:
 109:ESP_API.c     ****         }
 110:ESP_API.c     ****         else if (command_buffer[cmd_index] == ' ') {
 460              		.loc 1 110 0
 461 0028 202C     		cmp	r4, #32
 462 002a 08D1     		bne	.L39
 111:ESP_API.c     ****             cmd_index++;
 463              		.loc 1 111 0
 464 002c 0136     		adds	r6, r6, #1
 465 002e 274B     		ldr	r3, .L51
 466 0030 5E70     		strb	r6, [r3, #1]
 112:ESP_API.c     ****             phone_num[phone_num_ind] = '\0';
 467              		.loc 1 112 0
 468 0032 0022     		movs	r2, #0
 469 0034 04AB     		add	r3, sp, #16
 470 0036 2B44     		add	r3, r3, r5
 471 0038 03F80C2C 		strb	r2, [r3, #-12]
 113:ESP_API.c     ****             break;
 472              		.loc 1 113 0
 473 003c 0BE0     		b	.L40
 474              	.LVL51:
 475              	.L39:
 114:ESP_API.c     ****         }
 115:ESP_API.c     ****         if (phone_num_ind >= 10) {
 476              		.loc 1 115 0
 477 003e 092D     		cmp	r5, #9
 478 0040 03D9     		bls	.L37
 116:ESP_API.c     ****             UART_ESP_PutString("Phone num too long.");
 479              		.loc 1 116 0
 480 0042 2348     		ldr	r0, .L51+4
 481 0044 FFF7FEFF 		bl	UART_ESP_PutString
 482              	.LVL52:
 117:ESP_API.c     ****             return;
 483              		.loc 1 117 0
 484 0048 3DE0     		b	.L36
 485              	.LVL53:
 486              	.L37:
 106:ESP_API.c     ****         if (isNumberic(command_buffer[cmd_index])) {
 487              		.loc 1 106 0
 488 004a 204B     		ldr	r3, .L51
 489 004c 5E78     		ldrb	r6, [r3, #1]	@ zero_extendqisi2
 490 004e 214B     		ldr	r3, .L51+8
 491 0050 9C5D     		ldrb	r4, [r3, r6]	@ zero_extendqisi2
 492 0052 002C     		cmp	r4, #0
 493 0054 DAD1     		bne	.L42
 494              	.L40:
 118:ESP_API.c     ****         }
 119:ESP_API.c     ****     }
 120:ESP_API.c     ****     if (phone_num_ind <= 2) {
 495              		.loc 1 120 0
 496 0056 022D     		cmp	r5, #2
 497 0058 03D8     		bhi	.L43
 121:ESP_API.c     ****         UART_ESP_PutString("Phone num too short.");
ARM GAS  C:\Users\David\AppData\Local\Temp\ccDSdk2u.s 			page 12


 498              		.loc 1 121 0
 499 005a 1F48     		ldr	r0, .L51+12
 500 005c FFF7FEFF 		bl	UART_ESP_PutString
 501              	.LVL54:
 122:ESP_API.c     ****         return;
 502              		.loc 1 122 0
 503 0060 31E0     		b	.L36
 504              	.L43:
 123:ESP_API.c     ****     }
 124:ESP_API.c     ****     if (phone_num[phone_num_ind] != '\0') {
 505              		.loc 1 124 0
 506 0062 04AB     		add	r3, sp, #16
 507 0064 1D44     		add	r5, r5, r3
 508              	.LVL55:
 509 0066 15F80C3C 		ldrb	r3, [r5, #-12]	@ zero_extendqisi2
 510 006a 1BB1     		cbz	r3, .L44
 125:ESP_API.c     ****         UART_ESP_PutString("Phone num not vaild.");
 511              		.loc 1 125 0
 512 006c 1B48     		ldr	r0, .L51+16
 513 006e FFF7FEFF 		bl	UART_ESP_PutString
 514              	.LVL56:
 126:ESP_API.c     ****         return;
 515              		.loc 1 126 0
 516 0072 28E0     		b	.L36
 517              	.L44:
 127:ESP_API.c     ****     }
 128:ESP_API.c     ****     
 129:ESP_API.c     ****     sprintf(full_phone_num, "+36%s", phone_num);
 518              		.loc 1 129 0
 519 0074 01AA     		add	r2, sp, #4
 520 0076 1A49     		ldr	r1, .L51+20
 521 0078 1A48     		ldr	r0, .L51+24
 522 007a FFF7FEFF 		bl	sprintf
 523              	.LVL57:
 130:ESP_API.c     ****     
 131:ESP_API.c     ****     uint8 message_length = readNumFromCommandUntilNonNum();
 524              		.loc 1 131 0
 525 007e FFF7FEFF 		bl	readNumFromCommandUntilNonNum
 526              	.LVL58:
 527 0082 C0B2     		uxtb	r0, r0
 528              	.LVL59:
 132:ESP_API.c     ****     if (message_length <= 0) {
 529              		.loc 1 132 0
 530 0084 18B9     		cbnz	r0, .L45
 133:ESP_API.c     ****         UART_ESP_PutString("Not valid message found");
 531              		.loc 1 133 0
 532 0086 1848     		ldr	r0, .L51+28
 533              	.LVL60:
 534 0088 FFF7FEFF 		bl	UART_ESP_PutString
 535              	.LVL61:
 134:ESP_API.c     ****         return;
 536              		.loc 1 134 0
 537 008c 1BE0     		b	.L36
 538              	.LVL62:
 539              	.L45:
 135:ESP_API.c     ****     }
 136:ESP_API.c     ****     message_length = message_length > 220 ? 220 : message_length; //max 220 karakter hosszu SMS meh
ARM GAS  C:\Users\David\AppData\Local\Temp\ccDSdk2u.s 			page 13


 540              		.loc 1 136 0
 541 008e DC28     		cmp	r0, #220
 542 0090 28BF     		it	cs
 543 0092 DC20     		movcs	r0, #220
 544              	.LVL63:
 545              	.LBB6:
 137:ESP_API.c     ****     for (uint8 i = 0; i < message_length; i++) {
 546              		.loc 1 137 0
 547 0094 0023     		movs	r3, #0
 548 0096 0FE0     		b	.L46
 549              	.LVL64:
 550              	.L48:
 138:ESP_API.c     ****         if (command_buffer[cmd_index] == '\0') {
 551              		.loc 1 138 0
 552 0098 0C4A     		ldr	r2, .L51
 553 009a 5278     		ldrb	r2, [r2, #1]	@ zero_extendqisi2
 554 009c 0D49     		ldr	r1, .L51+8
 555 009e 895C     		ldrb	r1, [r1, r2]	@ zero_extendqisi2
 556 00a0 19B9     		cbnz	r1, .L47
 139:ESP_API.c     ****             UART_ESP_PutString("SMS message is not the promised length long");
 557              		.loc 1 139 0
 558 00a2 1248     		ldr	r0, .L51+32
 559              	.LVL65:
 560 00a4 FFF7FEFF 		bl	UART_ESP_PutString
 561              	.LVL66:
 140:ESP_API.c     ****             return;
 562              		.loc 1 140 0
 563 00a8 0DE0     		b	.L36
 564              	.LVL67:
 565              	.L47:
 141:ESP_API.c     ****         }
 142:ESP_API.c     ****         sms_message[i] = command_buffer[cmd_index++];
 566              		.loc 1 142 0 discriminator 2
 567 00aa 0132     		adds	r2, r2, #1
 568 00ac 074C     		ldr	r4, .L51
 569 00ae 6270     		strb	r2, [r4, #1]
 570 00b0 0F4A     		ldr	r2, .L51+36
 571 00b2 D154     		strb	r1, [r2, r3]
 137:ESP_API.c     ****         if (command_buffer[cmd_index] == '\0') {
 572              		.loc 1 137 0 discriminator 2
 573 00b4 0133     		adds	r3, r3, #1
 574              	.LVL68:
 575 00b6 DBB2     		uxtb	r3, r3
 576              	.LVL69:
 577              	.L46:
 137:ESP_API.c     ****         if (command_buffer[cmd_index] == '\0') {
 578              		.loc 1 137 0 is_stmt 0 discriminator 1
 579 00b8 8342     		cmp	r3, r0
 580 00ba EDD3     		bcc	.L48
 581              	.LBE6:
 143:ESP_API.c     ****     }
 144:ESP_API.c     ****     
 145:ESP_API.c     ****     start_sms_sending_sequence(&gsm_fifo, sms_message, full_phone_num);
 582              		.loc 1 145 0 is_stmt 1
 583 00bc 094A     		ldr	r2, .L51+24
 584 00be 0C49     		ldr	r1, .L51+36
 585 00c0 0C48     		ldr	r0, .L51+40
ARM GAS  C:\Users\David\AppData\Local\Temp\ccDSdk2u.s 			page 14


 586              	.LVL70:
 587 00c2 FFF7FEFF 		bl	start_sms_sending_sequence
 588              	.LVL71:
 589              	.L36:
 146:ESP_API.c     ****     
 147:ESP_API.c     **** }
 590              		.loc 1 147 0
 591 00c6 04B0     		add	sp, sp, #16
 592              		.cfi_def_cfa_offset 16
 593              		@ sp needed
 594 00c8 70BD     		pop	{r4, r5, r6, pc}
 595              	.L52:
 596 00ca 00BF     		.align	2
 597              	.L51:
 598 00cc 00000000 		.word	.LANCHOR0
 599 00d0 44000000 		.word	.LC3
 600 00d4 00000000 		.word	command_buffer
 601 00d8 58000000 		.word	.LC4
 602 00dc 70000000 		.word	.LC5
 603 00e0 88000000 		.word	.LC6
 604 00e4 00000000 		.word	full_phone_num
 605 00e8 90000000 		.word	.LC7
 606 00ec A8000000 		.word	.LC8
 607 00f0 00000000 		.word	sms_message
 608 00f4 00000000 		.word	gsm_fifo
 609              		.cfi_endproc
 610              	.LFE68:
 611              		.size	smsCommand, .-smsCommand
 612              		.comm	sms_message,221,4
 613              		.comm	full_phone_num,13,4
 614              		.comm	second_row,17,4
 615              		.comm	first_row,17,4
 616              		.global	cmd_index
 617              		.global	lastNonNum
 618              		.comm	num_buffer,6,4
 619              		.section	.rodata.str1.4,"aMS",%progbits,1
 620              		.align	2
 621              	.LC0:
 622 0000 4E6F7420 		.ascii	"Not valid command! #1\000"
 622      76616C69 
 622      6420636F 
 622      6D6D616E 
 622      64212023 
 623 0016 0000     		.space	2
 624              	.LC1:
 625 0018 4E6F7420 		.ascii	"Not valid command! #2\000"
 625      76616C69 
 625      6420636F 
 625      6D6D616E 
 625      64212023 
 626 002e 0000     		.space	2
 627              	.LC2:
 628 0030 20202020 		.ascii	"                \000"
 628      20202020 
 628      20202020 
 628      20202020 
 628      00
ARM GAS  C:\Users\David\AppData\Local\Temp\ccDSdk2u.s 			page 15


 629 0041 000000   		.space	3
 630              	.LC3:
 631 0044 50686F6E 		.ascii	"Phone num too long.\000"
 631      65206E75 
 631      6D20746F 
 631      6F206C6F 
 631      6E672E00 
 632              	.LC4:
 633 0058 50686F6E 		.ascii	"Phone num too short.\000"
 633      65206E75 
 633      6D20746F 
 633      6F207368 
 633      6F72742E 
 634 006d 000000   		.space	3
 635              	.LC5:
 636 0070 50686F6E 		.ascii	"Phone num not vaild.\000"
 636      65206E75 
 636      6D206E6F 
 636      74207661 
 636      696C642E 
 637 0085 000000   		.space	3
 638              	.LC6:
 639 0088 2B333625 		.ascii	"+36%s\000"
 639      7300
 640 008e 0000     		.space	2
 641              	.LC7:
 642 0090 4E6F7420 		.ascii	"Not valid message found\000"
 642      76616C69 
 642      64206D65 
 642      73736167 
 642      6520666F 
 643              	.LC8:
 644 00a8 534D5320 		.ascii	"SMS message is not the promised length long\000"
 644      6D657373 
 644      61676520 
 644      6973206E 
 644      6F742074 
 645              		.bss
 646              		.set	.LANCHOR0,. + 0
 647              		.type	lastNonNum, %object
 648              		.size	lastNonNum, 1
 649              	lastNonNum:
 650 0000 00       		.space	1
 651              		.type	cmd_index, %object
 652              		.size	cmd_index, 1
 653              	cmd_index:
 654 0001 00       		.space	1
 655              		.text
 656              	.Letext0:
 657              		.file 2 "c:\\program files (x86)\\cypress\\psoc creator\\4.4\\psoc creator\\import\\gnu\\arm\\5.4.
 658              		.file 3 "c:\\program files (x86)\\cypress\\psoc creator\\4.4\\psoc creator\\import\\gnu\\arm\\5.4.
 659              		.file 4 "Generated_Source\\PSoC5/cytypes.h"
 660              		.file 5 "TaskFIFO.h"
 661              		.file 6 "Generated_Source\\PSoC5/core_cm3.h"
 662              		.file 7 "main.h"
 663              		.file 8 "SettingsHelper.h"
 664              		.file 9 "ds1302.h"
ARM GAS  C:\Users\David\AppData\Local\Temp\ccDSdk2u.s 			page 16


 665              		.file 10 "Generated_Source\\PSoC5/UART_ESP.h"
 666              		.file 11 "<built-in>"
 667              		.file 12 "GSMHandler.h"