ARM GAS  C:\Users\David\AppData\Local\Temp\ccL9u6zf.s 			page 1


   1              		.syntax unified
   2              		.cpu cortex-m3
   3              		.fpu softvfp
   4              		.eabi_attribute 20, 1
   5              		.eabi_attribute 21, 1
   6              		.eabi_attribute 23, 3
   7              		.eabi_attribute 24, 1
   8              		.eabi_attribute 25, 1
   9              		.eabi_attribute 26, 1
  10              		.eabi_attribute 30, 1
  11              		.eabi_attribute 34, 1
  12              		.eabi_attribute 18, 4
  13              		.thumb
  14              		.syntax unified
  15              		.file	"GSMHandler.c"
  16              		.text
  17              	.Ltext0:
  18              		.cfi_sections	.debug_frame
  19              		.section	.text.print_status,"ax",%progbits
  20              		.align	2
  21              		.global	print_status
  22              		.thumb
  23              		.thumb_func
  24              		.type	print_status, %function
  25              	print_status:
  26              	.LFB63:
  27              		.file 1 "GSMHandler.c"
   1:GSMHandler.c  **** /* ========================================
   2:GSMHandler.c  ****  *
   3:GSMHandler.c  ****  * Copyright YOUR COMPANY, THE YEAR
   4:GSMHandler.c  ****  * All Rights Reserved
   5:GSMHandler.c  ****  * UNPUBLISHED, LICENSED SOFTWARE.
   6:GSMHandler.c  ****  *
   7:GSMHandler.c  ****  * CONFIDENTIAL AND PROPRIETARY INFORMATION
   8:GSMHandler.c  ****  * WHICH IS THE PROPERTY OF your company.
   9:GSMHandler.c  ****  *
  10:GSMHandler.c  ****  * ========================================
  11:GSMHandler.c  **** */
  12:GSMHandler.c  **** 
  13:GSMHandler.c  **** 
  14:GSMHandler.c  **** #include "project.h"
  15:GSMHandler.c  **** #include "TaskFIFO.h"
  16:GSMHandler.c  **** #include "SettingsHelper.h"
  17:GSMHandler.c  **** 
  18:GSMHandler.c  **** 
  19:GSMHandler.c  **** char * message;
  20:GSMHandler.c  **** char * number;
  21:GSMHandler.c  **** 
  22:GSMHandler.c  **** void print_status(char * state) {
  28              		.loc 1 22 0
  29              		.cfi_startproc
  30              		@ args = 0, pretend = 0, frame = 0
  31              		@ frame_needed = 0, uses_anonymous_args = 0
  32              	.LVL0:
  33 0000 10B5     		push	{r4, lr}
  34              		.cfi_def_cfa_offset 8
  35              		.cfi_offset 4, -8
ARM GAS  C:\Users\David\AppData\Local\Temp\ccL9u6zf.s 			page 2


  36              		.cfi_offset 14, -4
  37 0002 0446     		mov	r4, r0
  23:GSMHandler.c  ****     if (COMMUNICATION_MODE != LCD_COMMUNICATION) { //Akkor is kiirja az LCD-re ha nem lcd kommunika
  38              		.loc 1 23 0
  39 0004 0D4B     		ldr	r3, .L4
  40 0006 1B78     		ldrb	r3, [r3]	@ zero_extendqisi2
  41 0008 4BB1     		cbz	r3, .L2
  24:GSMHandler.c  ****             LCD_ClearDisplay();
  42              		.loc 1 24 0
  43 000a 0120     		movs	r0, #1
  44              	.LVL1:
  45 000c FFF7FEFF 		bl	LCD_WriteControl
  46              	.LVL2:
  25:GSMHandler.c  ****             LCD_Position(0u, 0u);
  47              		.loc 1 25 0
  48 0010 0021     		movs	r1, #0
  49 0012 0846     		mov	r0, r1
  50 0014 FFF7FEFF 		bl	LCD_Position
  51              	.LVL3:
  26:GSMHandler.c  ****             LCD_PrintString(state);
  52              		.loc 1 26 0
  53 0018 2046     		mov	r0, r4
  54 001a FFF7FEFF 		bl	LCD_PrintString
  55              	.LVL4:
  56              	.L2:
  27:GSMHandler.c  ****     }
  28:GSMHandler.c  ****     UART_ESP_PutString(state);
  57              		.loc 1 28 0
  58 001e 2046     		mov	r0, r4
  59 0020 FFF7FEFF 		bl	UART_ESP_PutString
  60              	.LVL5:
  29:GSMHandler.c  ****     LCD_ClearDisplay();
  61              		.loc 1 29 0
  62 0024 0120     		movs	r0, #1
  63 0026 FFF7FEFF 		bl	LCD_WriteControl
  64              	.LVL6:
  30:GSMHandler.c  ****     LCD_Position(0u, 0u);
  65              		.loc 1 30 0
  66 002a 0021     		movs	r1, #0
  67 002c 0846     		mov	r0, r1
  68 002e FFF7FEFF 		bl	LCD_Position
  69              	.LVL7:
  31:GSMHandler.c  ****     printString(state); 
  70              		.loc 1 31 0
  71 0032 2046     		mov	r0, r4
  72 0034 FFF7FEFF 		bl	printString
  73              	.LVL8:
  74 0038 10BD     		pop	{r4, pc}
  75              	.LVL9:
  76              	.L5:
  77 003a 00BF     		.align	2
  78              	.L4:
  79 003c 00000000 		.word	COMMUNICATION_MODE
  80              		.cfi_endproc
  81              	.LFE63:
  82              		.size	print_status, .-print_status
  83              		.section	.text.send_AT_command,"ax",%progbits
ARM GAS  C:\Users\David\AppData\Local\Temp\ccL9u6zf.s 			page 3


  84              		.align	2
  85              		.global	send_AT_command
  86              		.thumb
  87              		.thumb_func
  88              		.type	send_AT_command, %function
  89              	send_AT_command:
  90              	.LFB64:
  32:GSMHandler.c  **** }
  33:GSMHandler.c  **** 
  34:GSMHandler.c  **** void send_AT_command() {
  91              		.loc 1 34 0
  92              		.cfi_startproc
  93              		@ args = 0, pretend = 0, frame = 0
  94              		@ frame_needed = 0, uses_anonymous_args = 0
  95 0000 08B5     		push	{r3, lr}
  96              		.cfi_def_cfa_offset 8
  97              		.cfi_offset 3, -8
  98              		.cfi_offset 14, -4
  35:GSMHandler.c  ****     UART_GSM_PutString("AT");
  99              		.loc 1 35 0
 100 0002 0548     		ldr	r0, .L8
 101 0004 FFF7FEFF 		bl	UART_GSM_PutString
 102              	.LVL10:
  36:GSMHandler.c  ****     UART_GSM_PutChar(0x0D);
 103              		.loc 1 36 0
 104 0008 0D20     		movs	r0, #13
 105 000a FFF7FEFF 		bl	UART_GSM_PutChar
 106              	.LVL11:
  37:GSMHandler.c  ****     print_status("SMS sending 1/4..");
 107              		.loc 1 37 0
 108 000e 0348     		ldr	r0, .L8+4
 109 0010 FFF7FEFF 		bl	print_status
 110              	.LVL12:
 111 0014 08BD     		pop	{r3, pc}
 112              	.L9:
 113 0016 00BF     		.align	2
 114              	.L8:
 115 0018 00000000 		.word	.LC0
 116 001c 04000000 		.word	.LC1
 117              		.cfi_endproc
 118              	.LFE64:
 119              		.size	send_AT_command, .-send_AT_command
 120              		.section	.text.send_ATCMGF_command,"ax",%progbits
 121              		.align	2
 122              		.global	send_ATCMGF_command
 123              		.thumb
 124              		.thumb_func
 125              		.type	send_ATCMGF_command, %function
 126              	send_ATCMGF_command:
 127              	.LFB65:
  38:GSMHandler.c  **** }
  39:GSMHandler.c  **** 
  40:GSMHandler.c  **** void send_ATCMGF_command() {
 128              		.loc 1 40 0
 129              		.cfi_startproc
 130              		@ args = 0, pretend = 0, frame = 0
 131              		@ frame_needed = 0, uses_anonymous_args = 0
ARM GAS  C:\Users\David\AppData\Local\Temp\ccL9u6zf.s 			page 4


 132 0000 08B5     		push	{r3, lr}
 133              		.cfi_def_cfa_offset 8
 134              		.cfi_offset 3, -8
 135              		.cfi_offset 14, -4
  41:GSMHandler.c  ****     UART_GSM_PutString("AT+CMGF=1");
 136              		.loc 1 41 0
 137 0002 0548     		ldr	r0, .L12
 138 0004 FFF7FEFF 		bl	UART_GSM_PutString
 139              	.LVL13:
  42:GSMHandler.c  ****     UART_GSM_PutChar(0x0D);
 140              		.loc 1 42 0
 141 0008 0D20     		movs	r0, #13
 142 000a FFF7FEFF 		bl	UART_GSM_PutChar
 143              	.LVL14:
  43:GSMHandler.c  ****     print_status("SMS sending 2/4..");
 144              		.loc 1 43 0
 145 000e 0348     		ldr	r0, .L12+4
 146 0010 FFF7FEFF 		bl	print_status
 147              	.LVL15:
 148 0014 08BD     		pop	{r3, pc}
 149              	.L13:
 150 0016 00BF     		.align	2
 151              	.L12:
 152 0018 18000000 		.word	.LC2
 153 001c 24000000 		.word	.LC3
 154              		.cfi_endproc
 155              	.LFE65:
 156              		.size	send_ATCMGF_command, .-send_ATCMGF_command
 157              		.section	.text.send_SMSStarter_command,"ax",%progbits
 158              		.align	2
 159              		.global	send_SMSStarter_command
 160              		.thumb
 161              		.thumb_func
 162              		.type	send_SMSStarter_command, %function
 163              	send_SMSStarter_command:
 164              	.LFB66:
  44:GSMHandler.c  **** }
  45:GSMHandler.c  **** 
  46:GSMHandler.c  **** void send_SMSStarter_command() {
 165              		.loc 1 46 0
 166              		.cfi_startproc
 167              		@ args = 0, pretend = 0, frame = 32
 168              		@ frame_needed = 0, uses_anonymous_args = 0
 169 0000 00B5     		push	{lr}
 170              		.cfi_def_cfa_offset 4
 171              		.cfi_offset 14, -4
 172 0002 89B0     		sub	sp, sp, #36
 173              		.cfi_def_cfa_offset 40
  47:GSMHandler.c  ****     char str[25];
  48:GSMHandler.c  ****     sprintf(str, "AT+CMGS=\"%s\"", number);
 174              		.loc 1 48 0
 175 0004 084B     		ldr	r3, .L16
 176 0006 1A68     		ldr	r2, [r3]
 177 0008 0849     		ldr	r1, .L16+4
 178 000a 01A8     		add	r0, sp, #4
 179 000c FFF7FEFF 		bl	sprintf
 180              	.LVL16:
ARM GAS  C:\Users\David\AppData\Local\Temp\ccL9u6zf.s 			page 5


  49:GSMHandler.c  ****     UART_GSM_PutString(str);
 181              		.loc 1 49 0
 182 0010 01A8     		add	r0, sp, #4
 183 0012 FFF7FEFF 		bl	UART_GSM_PutString
 184              	.LVL17:
  50:GSMHandler.c  ****     UART_GSM_PutChar(0x0D);
 185              		.loc 1 50 0
 186 0016 0D20     		movs	r0, #13
 187 0018 FFF7FEFF 		bl	UART_GSM_PutChar
 188              	.LVL18:
  51:GSMHandler.c  ****     print_status("SMS sending 3/4..");
 189              		.loc 1 51 0
 190 001c 0448     		ldr	r0, .L16+8
 191 001e FFF7FEFF 		bl	print_status
 192              	.LVL19:
  52:GSMHandler.c  **** }
 193              		.loc 1 52 0
 194 0022 09B0     		add	sp, sp, #36
 195              		.cfi_def_cfa_offset 4
 196              		@ sp needed
 197 0024 5DF804FB 		ldr	pc, [sp], #4
 198              	.L17:
 199              		.align	2
 200              	.L16:
 201 0028 00000000 		.word	number
 202 002c 38000000 		.word	.LC4
 203 0030 48000000 		.word	.LC5
 204              		.cfi_endproc
 205              	.LFE66:
 206              		.size	send_SMSStarter_command, .-send_SMSStarter_command
 207              		.section	.text.send_sms_command,"ax",%progbits
 208              		.align	2
 209              		.global	send_sms_command
 210              		.thumb
 211              		.thumb_func
 212              		.type	send_sms_command, %function
 213              	send_sms_command:
 214              	.LFB67:
  53:GSMHandler.c  **** 
  54:GSMHandler.c  **** void send_sms_command() {
 215              		.loc 1 54 0
 216              		.cfi_startproc
 217              		@ args = 0, pretend = 0, frame = 0
 218              		@ frame_needed = 0, uses_anonymous_args = 0
 219 0000 08B5     		push	{r3, lr}
 220              		.cfi_def_cfa_offset 8
 221              		.cfi_offset 3, -8
 222              		.cfi_offset 14, -4
  55:GSMHandler.c  ****  UART_GSM_PutString(message);
 223              		.loc 1 55 0
 224 0002 054B     		ldr	r3, .L20
 225 0004 1868     		ldr	r0, [r3]
 226 0006 FFF7FEFF 		bl	UART_GSM_PutString
 227              	.LVL20:
  56:GSMHandler.c  ****  UART_GSM_PutChar(0x1A);
 228              		.loc 1 56 0
 229 000a 1A20     		movs	r0, #26
ARM GAS  C:\Users\David\AppData\Local\Temp\ccL9u6zf.s 			page 6


 230 000c FFF7FEFF 		bl	UART_GSM_PutChar
 231              	.LVL21:
  57:GSMHandler.c  ****  print_status("SMS sending 4/4..");
 232              		.loc 1 57 0
 233 0010 0248     		ldr	r0, .L20+4
 234 0012 FFF7FEFF 		bl	print_status
 235              	.LVL22:
 236 0016 08BD     		pop	{r3, pc}
 237              	.L21:
 238              		.align	2
 239              	.L20:
 240 0018 00000000 		.word	message
 241 001c 5C000000 		.word	.LC6
 242              		.cfi_endproc
 243              	.LFE67:
 244              		.size	send_sms_command, .-send_sms_command
 245              		.section	.text.power_on_modul,"ax",%progbits
 246              		.align	2
 247              		.global	power_on_modul
 248              		.thumb
 249              		.thumb_func
 250              		.type	power_on_modul, %function
 251              	power_on_modul:
 252              	.LFB68:
  58:GSMHandler.c  **** }
  59:GSMHandler.c  **** 
  60:GSMHandler.c  **** void power_on_modul() {
 253              		.loc 1 60 0
 254              		.cfi_startproc
 255              		@ args = 0, pretend = 0, frame = 0
 256              		@ frame_needed = 0, uses_anonymous_args = 0
 257 0000 08B5     		push	{r3, lr}
 258              		.cfi_def_cfa_offset 8
 259              		.cfi_offset 3, -8
 260              		.cfi_offset 14, -4
  61:GSMHandler.c  ****     GSM_DTR_Write(1u);
 261              		.loc 1 61 0
 262 0002 0120     		movs	r0, #1
 263 0004 FFF7FEFF 		bl	GSM_DTR_Write
 264              	.LVL23:
  62:GSMHandler.c  ****     print_status("Powering on 0/4");
 265              		.loc 1 62 0
 266 0008 0148     		ldr	r0, .L24
 267 000a FFF7FEFF 		bl	print_status
 268              	.LVL24:
 269 000e 08BD     		pop	{r3, pc}
 270              	.L25:
 271              		.align	2
 272              	.L24:
 273 0010 70000000 		.word	.LC7
 274              		.cfi_endproc
 275              	.LFE68:
 276              		.size	power_on_modul, .-power_on_modul
 277              		.section	.text.power_down_cmd,"ax",%progbits
 278              		.align	2
 279              		.global	power_down_cmd
 280              		.thumb
ARM GAS  C:\Users\David\AppData\Local\Temp\ccL9u6zf.s 			page 7


 281              		.thumb_func
 282              		.type	power_down_cmd, %function
 283              	power_down_cmd:
 284              	.LFB69:
  63:GSMHandler.c  **** }
  64:GSMHandler.c  **** 
  65:GSMHandler.c  **** void power_down_cmd() {
 285              		.loc 1 65 0
 286              		.cfi_startproc
 287              		@ args = 0, pretend = 0, frame = 0
 288              		@ frame_needed = 0, uses_anonymous_args = 0
 289 0000 08B5     		push	{r3, lr}
 290              		.cfi_def_cfa_offset 8
 291              		.cfi_offset 3, -8
 292              		.cfi_offset 14, -4
  66:GSMHandler.c  ****     UART_GSM_PutString("AT+CPOWD=1");
 293              		.loc 1 66 0
 294 0002 0548     		ldr	r0, .L28
 295 0004 FFF7FEFF 		bl	UART_GSM_PutString
 296              	.LVL25:
  67:GSMHandler.c  ****     UART_GSM_PutChar(0x0D);
 297              		.loc 1 67 0
 298 0008 0D20     		movs	r0, #13
 299 000a FFF7FEFF 		bl	UART_GSM_PutChar
 300              	.LVL26:
  68:GSMHandler.c  ****     print_status("Powering down");
 301              		.loc 1 68 0
 302 000e 0348     		ldr	r0, .L28+4
 303 0010 FFF7FEFF 		bl	print_status
 304              	.LVL27:
 305 0014 08BD     		pop	{r3, pc}
 306              	.L29:
 307 0016 00BF     		.align	2
 308              	.L28:
 309 0018 80000000 		.word	.LC8
 310 001c 8C000000 		.word	.LC9
 311              		.cfi_endproc
 312              	.LFE69:
 313              		.size	power_down_cmd, .-power_down_cmd
 314              		.section	.text.power_off,"ax",%progbits
 315              		.align	2
 316              		.global	power_off
 317              		.thumb
 318              		.thumb_func
 319              		.type	power_off, %function
 320              	power_off:
 321              	.LFB70:
  69:GSMHandler.c  **** }
  70:GSMHandler.c  **** 
  71:GSMHandler.c  **** void power_off() {
 322              		.loc 1 71 0
 323              		.cfi_startproc
 324              		@ args = 0, pretend = 0, frame = 0
 325              		@ frame_needed = 0, uses_anonymous_args = 0
 326 0000 08B5     		push	{r3, lr}
 327              		.cfi_def_cfa_offset 8
 328              		.cfi_offset 3, -8
ARM GAS  C:\Users\David\AppData\Local\Temp\ccL9u6zf.s 			page 8


 329              		.cfi_offset 14, -4
  72:GSMHandler.c  ****     GSM_DTR_Write(0u);
 330              		.loc 1 72 0
 331 0002 0020     		movs	r0, #0
 332 0004 FFF7FEFF 		bl	GSM_DTR_Write
 333              	.LVL28:
  73:GSMHandler.c  ****     print_status("Powered off.");
 334              		.loc 1 73 0
 335 0008 0148     		ldr	r0, .L32
 336 000a FFF7FEFF 		bl	print_status
 337              	.LVL29:
 338 000e 08BD     		pop	{r3, pc}
 339              	.L33:
 340              		.align	2
 341              	.L32:
 342 0010 9C000000 		.word	.LC10
 343              		.cfi_endproc
 344              	.LFE70:
 345              		.size	power_off, .-power_off
 346              		.section	.text.start_sms_sending_sequence,"ax",%progbits
 347              		.align	2
 348              		.global	start_sms_sending_sequence
 349              		.thumb
 350              		.thumb_func
 351              		.type	start_sms_sending_sequence, %function
 352              	start_sms_sending_sequence:
 353              	.LFB71:
  74:GSMHandler.c  **** }
  75:GSMHandler.c  **** 
  76:GSMHandler.c  **** void start_sms_sending_sequence(TaskFIFO * gsm_fifo, char * m, char *n) {
 354              		.loc 1 76 0
 355              		.cfi_startproc
 356              		@ args = 0, pretend = 0, frame = 0
 357              		@ frame_needed = 0, uses_anonymous_args = 0
 358              	.LVL30:
 359 0000 10B5     		push	{r4, lr}
 360              		.cfi_def_cfa_offset 8
 361              		.cfi_offset 4, -8
 362              		.cfi_offset 14, -4
 363 0002 0446     		mov	r4, r0
  77:GSMHandler.c  ****     
  78:GSMHandler.c  ****     message = m;
 364              		.loc 1 78 0
 365 0004 214B     		ldr	r3, .L36
 366 0006 1960     		str	r1, [r3]
  79:GSMHandler.c  ****     number = n;
 367              		.loc 1 79 0
 368 0008 214B     		ldr	r3, .L36+4
 369 000a 1A60     		str	r2, [r3]
  80:GSMHandler.c  ****     
  81:GSMHandler.c  ****     pushTask(gsm_fifo,create_new_noparam_onetimetask(power_on_modul, 100));
 370              		.loc 1 81 0
 371 000c 6421     		movs	r1, #100
 372              	.LVL31:
 373 000e 2148     		ldr	r0, .L36+8
 374              	.LVL32:
 375 0010 FFF7FEFF 		bl	create_new_noparam_onetimetask
ARM GAS  C:\Users\David\AppData\Local\Temp\ccL9u6zf.s 			page 9


 376              	.LVL33:
 377 0014 0146     		mov	r1, r0
 378 0016 2046     		mov	r0, r4
 379 0018 FFF7FEFF 		bl	pushTask
 380              	.LVL34:
  82:GSMHandler.c  ****     pushTask(gsm_fifo,create_new_noparam_onetimetask(send_AT_command, 6000));
 381              		.loc 1 82 0
 382 001c 41F27071 		movw	r1, #6000
 383 0020 1D48     		ldr	r0, .L36+12
 384 0022 FFF7FEFF 		bl	create_new_noparam_onetimetask
 385              	.LVL35:
 386 0026 0146     		mov	r1, r0
 387 0028 2046     		mov	r0, r4
 388 002a FFF7FEFF 		bl	pushTask
 389              	.LVL36:
  83:GSMHandler.c  ****     pushTask(gsm_fifo,create_new_noparam_onetimetask(send_ATCMGF_command, 2000));
 390              		.loc 1 83 0
 391 002e 4FF4FA61 		mov	r1, #2000
 392 0032 1A48     		ldr	r0, .L36+16
 393 0034 FFF7FEFF 		bl	create_new_noparam_onetimetask
 394              	.LVL37:
 395 0038 0146     		mov	r1, r0
 396 003a 2046     		mov	r0, r4
 397 003c FFF7FEFF 		bl	pushTask
 398              	.LVL38:
  84:GSMHandler.c  ****     pushTask(gsm_fifo,create_new_noparam_onetimetask(send_SMSStarter_command, 4000));
 399              		.loc 1 84 0
 400 0040 4FF47A61 		mov	r1, #4000
 401 0044 1648     		ldr	r0, .L36+20
 402 0046 FFF7FEFF 		bl	create_new_noparam_onetimetask
 403              	.LVL39:
 404 004a 0146     		mov	r1, r0
 405 004c 2046     		mov	r0, r4
 406 004e FFF7FEFF 		bl	pushTask
 407              	.LVL40:
  85:GSMHandler.c  ****     pushTask(gsm_fifo,create_new_noparam_onetimetask(send_sms_command, 4000));
 408              		.loc 1 85 0
 409 0052 4FF47A61 		mov	r1, #4000
 410 0056 1348     		ldr	r0, .L36+24
 411 0058 FFF7FEFF 		bl	create_new_noparam_onetimetask
 412              	.LVL41:
 413 005c 0146     		mov	r1, r0
 414 005e 2046     		mov	r0, r4
 415 0060 FFF7FEFF 		bl	pushTask
 416              	.LVL42:
  86:GSMHandler.c  ****     pushTask(gsm_fifo,create_new_noparam_onetimetask(power_down_cmd, 10000));
 417              		.loc 1 86 0
 418 0064 42F21071 		movw	r1, #10000
 419 0068 0F48     		ldr	r0, .L36+28
 420 006a FFF7FEFF 		bl	create_new_noparam_onetimetask
 421              	.LVL43:
 422 006e 0146     		mov	r1, r0
 423 0070 2046     		mov	r0, r4
 424 0072 FFF7FEFF 		bl	pushTask
 425              	.LVL44:
  87:GSMHandler.c  ****     pushTask(gsm_fifo,create_new_noparam_onetimetask(power_off, 5000));
 426              		.loc 1 87 0
ARM GAS  C:\Users\David\AppData\Local\Temp\ccL9u6zf.s 			page 10


 427 0076 41F28831 		movw	r1, #5000
 428 007a 0C48     		ldr	r0, .L36+32
 429 007c FFF7FEFF 		bl	create_new_noparam_onetimetask
 430              	.LVL45:
 431 0080 0146     		mov	r1, r0
 432 0082 2046     		mov	r0, r4
 433 0084 FFF7FEFF 		bl	pushTask
 434              	.LVL46:
 435 0088 10BD     		pop	{r4, pc}
 436              	.LVL47:
 437              	.L37:
 438 008a 00BF     		.align	2
 439              	.L36:
 440 008c 00000000 		.word	message
 441 0090 00000000 		.word	number
 442 0094 00000000 		.word	power_on_modul
 443 0098 00000000 		.word	send_AT_command
 444 009c 00000000 		.word	send_ATCMGF_command
 445 00a0 00000000 		.word	send_SMSStarter_command
 446 00a4 00000000 		.word	send_sms_command
 447 00a8 00000000 		.word	power_down_cmd
 448 00ac 00000000 		.word	power_off
 449              		.cfi_endproc
 450              	.LFE71:
 451              		.size	start_sms_sending_sequence, .-start_sms_sending_sequence
 452              		.comm	number,4,4
 453              		.comm	message,4,4
 454              		.section	.rodata.str1.4,"aMS",%progbits,1
 455              		.align	2
 456              	.LC0:
 457 0000 415400   		.ascii	"AT\000"
 458 0003 00       		.space	1
 459              	.LC1:
 460 0004 534D5320 		.ascii	"SMS sending 1/4..\000"
 460      73656E64 
 460      696E6720 
 460      312F342E 
 460      2E00
 461 0016 0000     		.space	2
 462              	.LC2:
 463 0018 41542B43 		.ascii	"AT+CMGF=1\000"
 463      4D47463D 
 463      3100
 464 0022 0000     		.space	2
 465              	.LC3:
 466 0024 534D5320 		.ascii	"SMS sending 2/4..\000"
 466      73656E64 
 466      696E6720 
 466      322F342E 
 466      2E00
 467 0036 0000     		.space	2
 468              	.LC4:
 469 0038 41542B43 		.ascii	"AT+CMGS=\"%s\"\000"
 469      4D47533D 
 469      22257322 
 469      00
 470 0045 000000   		.space	3
ARM GAS  C:\Users\David\AppData\Local\Temp\ccL9u6zf.s 			page 11


 471              	.LC5:
 472 0048 534D5320 		.ascii	"SMS sending 3/4..\000"
 472      73656E64 
 472      696E6720 
 472      332F342E 
 472      2E00
 473 005a 0000     		.space	2
 474              	.LC6:
 475 005c 534D5320 		.ascii	"SMS sending 4/4..\000"
 475      73656E64 
 475      696E6720 
 475      342F342E 
 475      2E00
 476 006e 0000     		.space	2
 477              	.LC7:
 478 0070 506F7765 		.ascii	"Powering on 0/4\000"
 478      72696E67 
 478      206F6E20 
 478      302F3400 
 479              	.LC8:
 480 0080 41542B43 		.ascii	"AT+CPOWD=1\000"
 480      504F5744 
 480      3D3100
 481 008b 00       		.space	1
 482              	.LC9:
 483 008c 506F7765 		.ascii	"Powering down\000"
 483      72696E67 
 483      20646F77 
 483      6E00
 484 009a 0000     		.space	2
 485              	.LC10:
 486 009c 506F7765 		.ascii	"Powered off.\000"
 486      72656420 
 486      6F66662E 
 486      00
 487              		.text
 488              	.Letext0:
 489              		.file 2 "c:\\program files (x86)\\cypress\\psoc creator\\4.4\\psoc creator\\import\\gnu\\arm\\5.4.
 490              		.file 3 "c:\\program files (x86)\\cypress\\psoc creator\\4.4\\psoc creator\\import\\gnu\\arm\\5.4.
 491              		.file 4 "Generated_Source\\PSoC5/cytypes.h"
 492              		.file 5 "TaskFIFO.h"
 493              		.file 6 "Generated_Source\\PSoC5/core_cm3.h"
 494              		.file 7 "SettingsHelper.h"
 495              		.file 8 "Generated_Source\\PSoC5/LCD.h"
 496              		.file 9 "Generated_Source\\PSoC5/UART_ESP.h"
 497              		.file 10 "Generated_Source\\PSoC5/UART_GSM.h"
 498              		.file 11 "<built-in>"
 499              		.file 12 "Generated_Source\\PSoC5/GSM_DTR.h"