ARM GAS  C:\Users\David\AppData\Local\Temp\ccVzT3rx.s 			page 1


   1              		.syntax unified
   2              		.cpu cortex-m3
   3              		.fpu softvfp
   4              		.eabi_attribute 20, 1
   5              		.eabi_attribute 21, 1
   6              		.eabi_attribute 23, 3
   7              		.eabi_attribute 24, 1
   8              		.eabi_attribute 25, 1
   9              		.eabi_attribute 26, 1
  10              		.eabi_attribute 30, 1
  11              		.eabi_attribute 34, 1
  12              		.eabi_attribute 18, 4
  13              		.thumb
  14              		.syntax unified
  15              		.file	"hb100movement.c"
  16              		.text
  17              	.Ltext0:
  18              		.cfi_sections	.debug_frame
  19              		.section	.text.ADC_SAR_RADAR_ISR,"ax",%progbits
  20              		.align	2
  21              		.global	ADC_SAR_RADAR_ISR
  22              		.thumb
  23              		.thumb_func
  24              		.type	ADC_SAR_RADAR_ISR, %function
  25              	ADC_SAR_RADAR_ISR:
  26              	.LFB63:
  27              		.file 1 "hb100movement.c"
   1:hb100movement.c **** /* ========================================
   2:hb100movement.c ****  *
   3:hb100movement.c ****  * A mozgaserzekelo interruptja, es jelzo fuggvenye, ami flagat allit, amennyiben riasztas van.
   4:hb100movement.c ****  *
   5:hb100movement.c ****  *
   6:hb100movement.c ****  * ========================================
   7:hb100movement.c **** */
   8:hb100movement.c **** 
   9:hb100movement.c **** #include "project.h"
  10:hb100movement.c **** 
  11:hb100movement.c **** uint16 minAmp = 30000;
  12:hb100movement.c **** uint16 maxAmp = 0;
  13:hb100movement.c **** uint32 lastCountRadar = 0;
  14:hb100movement.c **** 
  15:hb100movement.c **** uint8 n_th_big_amplitude = 1;
  16:hb100movement.c **** 
  17:hb100movement.c **** /*
  18:hb100movement.c **** A radar AD konverterenek az interruptja.
  19:hb100movement.c **** Folyamatos min-max kereses ahhoz, hogy metudjuk az amplitudot.
  20:hb100movement.c **** */
  21:hb100movement.c **** CY_ISR(ADC_SAR_RADAR_ISR ) {
  28              		.loc 1 21 0
  29              		.cfi_startproc
  30              		@ args = 0, pretend = 0, frame = 8
  31              		@ frame_needed = 0, uses_anonymous_args = 0
  32 0000 00B5     		push	{lr}
  33              		.cfi_def_cfa_offset 4
  34              		.cfi_offset 14, -4
  35 0002 83B0     		sub	sp, sp, #12
  36              		.cfi_def_cfa_offset 16
ARM GAS  C:\Users\David\AppData\Local\Temp\ccVzT3rx.s 			page 2


  22:hb100movement.c ****  
  23:hb100movement.c ****     volatile uint16 AD_result = ADC_SAR_RADAR_GetResult16();
  37              		.loc 1 23 0
  38 0004 FFF7FEFF 		bl	ADC_SAR_RADAR_GetResult16
  39              	.LVL0:
  40 0008 80B2     		uxth	r0, r0
  41 000a ADF80600 		strh	r0, [sp, #6]	@ movhi
  24:hb100movement.c ****     
  25:hb100movement.c ****     if (AD_result < minAmp) {
  42              		.loc 1 25 0
  43 000e BDF80630 		ldrh	r3, [sp, #6]
  44 0012 9BB2     		uxth	r3, r3
  45 0014 0A4A     		ldr	r2, .L5
  46 0016 1288     		ldrh	r2, [r2]
  47 0018 9342     		cmp	r3, r2
  48 001a 03D2     		bcs	.L2
  26:hb100movement.c ****         minAmp = AD_result;
  49              		.loc 1 26 0
  50 001c BDF80620 		ldrh	r2, [sp, #6]
  51 0020 074B     		ldr	r3, .L5
  52 0022 1A80     		strh	r2, [r3]	@ movhi
  53              	.L2:
  27:hb100movement.c ****     }  
  28:hb100movement.c ****     if (AD_result > maxAmp) {
  54              		.loc 1 28 0
  55 0024 BDF80630 		ldrh	r3, [sp, #6]
  56 0028 9BB2     		uxth	r3, r3
  57 002a 064A     		ldr	r2, .L5+4
  58 002c 1288     		ldrh	r2, [r2]
  59 002e 9342     		cmp	r3, r2
  60 0030 03D9     		bls	.L1
  29:hb100movement.c ****         maxAmp = AD_result;
  61              		.loc 1 29 0
  62 0032 BDF80620 		ldrh	r2, [sp, #6]
  63 0036 034B     		ldr	r3, .L5+4
  64 0038 1A80     		strh	r2, [r3]	@ movhi
  65              	.L1:
  30:hb100movement.c ****     }
  31:hb100movement.c **** }
  66              		.loc 1 31 0
  67 003a 03B0     		add	sp, sp, #12
  68              		.cfi_def_cfa_offset 4
  69              		@ sp needed
  70 003c 5DF804FB 		ldr	pc, [sp], #4
  71              	.L6:
  72              		.align	2
  73              	.L5:
  74 0040 00000000 		.word	.LANCHOR0
  75 0044 00000000 		.word	.LANCHOR1
  76              		.cfi_endproc
  77              	.LFE63:
  78              		.size	ADC_SAR_RADAR_ISR, .-ADC_SAR_RADAR_ISR
  79              		.section	.text.check_movement,"ax",%progbits
  80              		.align	2
  81              		.global	check_movement
  82              		.thumb
  83              		.thumb_func
ARM GAS  C:\Users\David\AppData\Local\Temp\ccVzT3rx.s 			page 3


  84              		.type	check_movement, %function
  85              	check_movement:
  86              	.LFB64:
  32:hb100movement.c **** 
  33:hb100movement.c **** /*
  34:hb100movement.c **** Periodikusan fut le, itt ellenorizem a min-max szamolast.
  35:hb100movement.c **** Ha az amplitudo nagyobb egy  erteknel, akkor riasztas van.
  36:hb100movement.c **** */
  37:hb100movement.c **** void check_movement(uint8 * is_movement_alert) {
  87              		.loc 1 37 0
  88              		.cfi_startproc
  89              		@ args = 0, pretend = 0, frame = 16
  90              		@ frame_needed = 0, uses_anonymous_args = 0
  91              	.LVL1:
  92 0000 00B5     		push	{lr}
  93              		.cfi_def_cfa_offset 4
  94              		.cfi_offset 14, -4
  95 0002 85B0     		sub	sp, sp, #20
  96              		.cfi_def_cfa_offset 24
  38:hb100movement.c ****     volatile int16 amp = maxAmp-minAmp;
  97              		.loc 1 38 0
  98 0004 164B     		ldr	r3, .L11
  99 0006 1B88     		ldrh	r3, [r3]
 100 0008 164A     		ldr	r2, .L11+4
 101 000a 1288     		ldrh	r2, [r2]
 102 000c 9B1A     		subs	r3, r3, r2
 103 000e 1BB2     		sxth	r3, r3
 104 0010 ADF80E30 		strh	r3, [sp, #14]	@ movhi
  39:hb100movement.c ****      char str[10];
  40:hb100movement.c ****     sprintf(str, "%d\r\n", amp);
 105              		.loc 1 40 0
 106 0014 BDF80E20 		ldrh	r2, [sp, #14]
 107 0018 12B2     		sxth	r2, r2
 108 001a 1349     		ldr	r1, .L11+8
 109 001c 01A8     		add	r0, sp, #4
 110              	.LVL2:
 111 001e FFF7FEFF 		bl	sprintf
 112              	.LVL3:
  41:hb100movement.c ****    
  42:hb100movement.c ****   //  UART_PutString(str);
  43:hb100movement.c ****     
  44:hb100movement.c ****     if (amp > 3000 && amp < 4000) {
 113              		.loc 1 44 0
 114 0022 BDF80E30 		ldrh	r3, [sp, #14]
 115 0026 1BB2     		sxth	r3, r3
 116 0028 40F6B832 		movw	r2, #3000
 117 002c 9342     		cmp	r3, r2
 118 002e 0ADD     		ble	.L8
 119              		.loc 1 44 0 is_stmt 0 discriminator 1
 120 0030 BDF80E30 		ldrh	r3, [sp, #14]
 121 0034 1BB2     		sxth	r3, r3
 122 0036 B3F57A6F 		cmp	r3, #4000
 123 003a 04DA     		bge	.L8
  45:hb100movement.c ****         
  46:hb100movement.c ****         n_th_big_amplitude += 1;
 124              		.loc 1 46 0 is_stmt 1
 125 003c 094A     		ldr	r2, .L11+4
ARM GAS  C:\Users\David\AppData\Local\Temp\ccVzT3rx.s 			page 4


 126 003e 9378     		ldrb	r3, [r2, #2]	@ zero_extendqisi2
 127 0040 0133     		adds	r3, r3, #1
 128 0042 9370     		strb	r3, [r2, #2]
  47:hb100movement.c ****         
  48:hb100movement.c ****         if (n_th_big_amplitude >= 4) {
 129              		.loc 1 48 0
 130 0044 02E0     		b	.L9
 131              	.L8:
  49:hb100movement.c ****              //Mozgas erzekelve.
  50:hb100movement.c ****             // *is_movement_alert = 1u;        
  51:hb100movement.c ****         }
  52:hb100movement.c ****      }
  53:hb100movement.c ****     else {
  54:hb100movement.c ****         n_th_big_amplitude = 0;
 132              		.loc 1 54 0
 133 0046 0022     		movs	r2, #0
 134 0048 064B     		ldr	r3, .L11+4
 135 004a 9A70     		strb	r2, [r3, #2]
 136              	.L9:
  55:hb100movement.c ****     }
  56:hb100movement.c ****         maxAmp = 0;
 137              		.loc 1 56 0
 138 004c 0022     		movs	r2, #0
 139 004e 044B     		ldr	r3, .L11
 140 0050 1A80     		strh	r2, [r3]	@ movhi
  57:hb100movement.c ****         minAmp = 30000;
 141              		.loc 1 57 0
 142 0052 47F23052 		movw	r2, #30000
 143 0056 034B     		ldr	r3, .L11+4
 144 0058 1A80     		strh	r2, [r3]	@ movhi
  58:hb100movement.c **** }
 145              		.loc 1 58 0
 146 005a 05B0     		add	sp, sp, #20
 147              		.cfi_def_cfa_offset 4
 148              		@ sp needed
 149 005c 5DF804FB 		ldr	pc, [sp], #4
 150              	.L12:
 151              		.align	2
 152              	.L11:
 153 0060 00000000 		.word	.LANCHOR1
 154 0064 00000000 		.word	.LANCHOR0
 155 0068 00000000 		.word	.LC0
 156              		.cfi_endproc
 157              	.LFE64:
 158              		.size	check_movement, .-check_movement
 159              		.section	.text.reset_radar_min_max_values,"ax",%progbits
 160              		.align	2
 161              		.global	reset_radar_min_max_values
 162              		.thumb
 163              		.thumb_func
 164              		.type	reset_radar_min_max_values, %function
 165              	reset_radar_min_max_values:
 166              	.LFB65:
  59:hb100movement.c **** 
  60:hb100movement.c **** void reset_radar_min_max_values() {
 167              		.loc 1 60 0
 168              		.cfi_startproc
ARM GAS  C:\Users\David\AppData\Local\Temp\ccVzT3rx.s 			page 5


 169              		@ args = 0, pretend = 0, frame = 0
 170              		@ frame_needed = 0, uses_anonymous_args = 0
 171              		@ link register save eliminated.
  61:hb100movement.c ****         maxAmp = 0;
 172              		.loc 1 61 0
 173 0000 0022     		movs	r2, #0
 174 0002 034B     		ldr	r3, .L14
 175 0004 1A80     		strh	r2, [r3]	@ movhi
  62:hb100movement.c ****         minAmp = 30000;
 176              		.loc 1 62 0
 177 0006 47F23052 		movw	r2, #30000
 178 000a 024B     		ldr	r3, .L14+4
 179 000c 1A80     		strh	r2, [r3]	@ movhi
 180 000e 7047     		bx	lr
 181              	.L15:
 182              		.align	2
 183              	.L14:
 184 0010 00000000 		.word	.LANCHOR1
 185 0014 00000000 		.word	.LANCHOR0
 186              		.cfi_endproc
 187              	.LFE65:
 188              		.size	reset_radar_min_max_values, .-reset_radar_min_max_values
 189              		.global	n_th_big_amplitude
 190              		.global	lastCountRadar
 191              		.global	maxAmp
 192              		.global	minAmp
 193              		.data
 194              		.align	1
 195              		.set	.LANCHOR0,. + 0
 196              		.type	minAmp, %object
 197              		.size	minAmp, 2
 198              	minAmp:
 199 0000 3075     		.short	30000
 200              		.type	n_th_big_amplitude, %object
 201              		.size	n_th_big_amplitude, 1
 202              	n_th_big_amplitude:
 203 0002 01       		.byte	1
 204              		.section	.rodata.str1.4,"aMS",%progbits,1
 205              		.align	2
 206              	.LC0:
 207 0000 25640D0A 		.ascii	"%d\015\012\000"
 207      00
 208              		.bss
 209              		.align	2
 210              		.set	.LANCHOR1,. + 0
 211              		.type	maxAmp, %object
 212              		.size	maxAmp, 2
 213              	maxAmp:
 214 0000 0000     		.space	2
 215 0002 0000     		.space	2
 216              		.type	lastCountRadar, %object
 217              		.size	lastCountRadar, 4
 218              	lastCountRadar:
 219 0004 00000000 		.space	4
 220              		.text
 221              	.Letext0:
 222              		.file 2 "c:\\program files (x86)\\cypress\\psoc creator\\4.4\\psoc creator\\import\\gnu\\arm\\5.4.
ARM GAS  C:\Users\David\AppData\Local\Temp\ccVzT3rx.s 			page 6


 223              		.file 3 "c:\\program files (x86)\\cypress\\psoc creator\\4.4\\psoc creator\\import\\gnu\\arm\\5.4.
 224              		.file 4 "Generated_Source\\PSoC5/cytypes.h"
 225              		.file 5 "Generated_Source\\PSoC5/core_cm3.h"
 226              		.file 6 "Generated_Source\\PSoC5/ADC_SAR_RADAR.h"
 227              		.file 7 "<built-in>"