ARM GAS  C:\Users\David\AppData\Local\Temp\ccfC7MHB.s 			page 1


   1              		.syntax unified
   2              		.cpu cortex-m3
   3              		.fpu softvfp
   4              		.eabi_attribute 20, 1
   5              		.eabi_attribute 21, 1
   6              		.eabi_attribute 23, 3
   7              		.eabi_attribute 24, 1
   8              		.eabi_attribute 25, 1
   9              		.eabi_attribute 26, 1
  10              		.eabi_attribute 30, 1
  11              		.eabi_attribute 34, 1
  12              		.eabi_attribute 18, 4
  13              		.thumb
  14              		.syntax unified
  15              		.file	"Keypad.c"
  16              		.text
  17              	.Ltext0:
  18              		.cfi_sections	.debug_frame
  19              		.section	.text.get_pressed_key,"ax",%progbits
  20              		.align	2
  21              		.global	get_pressed_key
  22              		.thumb
  23              		.thumb_func
  24              		.type	get_pressed_key, %function
  25              	get_pressed_key:
  26              	.LFB63:
  27              		.file 1 "Keypad.c"
   1:Keypad.c      **** /* ========================================
   2:Keypad.c      ****  *
   3:Keypad.c      ****  * 4x4-es matrix billenyuzet kezelese
   4:Keypad.c      ****  *
   5:Keypad.c      ****  *
   6:Keypad.c      ****  * ========================================
   7:Keypad.c      **** */
   8:Keypad.c      **** 
   9:Keypad.c      **** #include "project.h"
  10:Keypad.c      **** #include "SettingsHelper.h"
  11:Keypad.c      **** 
  12:Keypad.c      **** 
  13:Keypad.c      **** uint8 waiting_for_relese = 0u;
  14:Keypad.c      **** uint8 PRESSED_KEY = 0;
  15:Keypad.c      **** 
  16:Keypad.c      **** 
  17:Keypad.c      **** //Visszaadja a legutobb lenyomott gomb erteket, es torli az erteket.
  18:Keypad.c      **** uint8 get_pressed_key() {
  28              		.loc 1 18 0
  29              		.cfi_startproc
  30              		@ args = 0, pretend = 0, frame = 0
  31              		@ frame_needed = 0, uses_anonymous_args = 0
  19:Keypad.c      ****     
  20:Keypad.c      ****     if (COMMUNICATION_MODE != LCD_COMMUNICATION) {
  32              		.loc 1 20 0
  33 0000 114B     		ldr	r3, .L10
  34 0002 1B78     		ldrb	r3, [r3]	@ zero_extendqisi2
  35 0004 BBB1     		cbz	r3, .L2
  18:Keypad.c      ****     
  36              		.loc 1 18 0
ARM GAS  C:\Users\David\AppData\Local\Temp\ccfC7MHB.s 			page 2


  37 0006 10B5     		push	{r4, lr}
  38              		.cfi_def_cfa_offset 8
  39              		.cfi_offset 4, -8
  40              		.cfi_offset 14, -4
  41              	.LBB2:
  21:Keypad.c      ****         char from_uart = COMMUNICATION_MODE == COMPUTER_COMMUNICATION ? UART_GetChar() : UART_ESP_G
  42              		.loc 1 21 0
  43 0008 012B     		cmp	r3, #1
  44 000a 03D1     		bne	.L3
  45              		.loc 1 21 0 is_stmt 0 discriminator 1
  46 000c FFF7FEFF 		bl	UART_GetChar
  47              	.LVL0:
  48 0010 0446     		mov	r4, r0
  49 0012 02E0     		b	.L4
  50              	.L3:
  51              		.loc 1 21 0 discriminator 2
  52 0014 FFF7FEFF 		bl	UART_ESP_GetChar
  53              	.LVL1:
  54 0018 0446     		mov	r4, r0
  55              	.L4:
  56              	.LVL2:
  22:Keypad.c      ****         if (from_uart == '$') {
  57              		.loc 1 22 0 is_stmt 1 discriminator 4
  58 001a 242C     		cmp	r4, #36
  59 001c 05D1     		bne	.L5
  23:Keypad.c      ****             UART_PutString("Visszavaltas normal uzemmodba. \r\n");
  60              		.loc 1 23 0
  61 001e 0B48     		ldr	r0, .L10+4
  62 0020 FFF7FEFF 		bl	UART_PutString
  63              	.LVL3:
  24:Keypad.c      ****             COMMUNICATION_MODE = LCD_COMMUNICATION;
  64              		.loc 1 24 0
  65 0024 0022     		movs	r2, #0
  66 0026 084B     		ldr	r3, .L10
  67 0028 1A70     		strb	r2, [r3]
  68              	.L5:
  25:Keypad.c      ****         }
  26:Keypad.c      ****         if (from_uart == '\r' || from_uart == '\n')
  69              		.loc 1 26 0
  70 002a 0D2C     		cmp	r4, #13
  71 002c 08D0     		beq	.L7
  72              		.loc 1 26 0 is_stmt 0 discriminator 1
  73 002e 0A2C     		cmp	r4, #10
  74 0030 08D1     		bne	.L8
  27:Keypad.c      ****             return 0;
  75              		.loc 1 27 0 is_stmt 1
  76 0032 0020     		movs	r0, #0
  77 0034 10BD     		pop	{r4, pc}
  78              	.LVL4:
  79              	.L2:
  80              		.cfi_def_cfa_offset 0
  81              		.cfi_restore 4
  82              		.cfi_restore 14
  83              	.LBE2:
  28:Keypad.c      ****         return from_uart;
  29:Keypad.c      ****     }
  30:Keypad.c      ****     uint8 temp = PRESSED_KEY;
ARM GAS  C:\Users\David\AppData\Local\Temp\ccfC7MHB.s 			page 3


  84              		.loc 1 30 0
  85 0036 064B     		ldr	r3, .L10+8
  86 0038 1878     		ldrb	r0, [r3]	@ zero_extendqisi2
  87              	.LVL5:
  31:Keypad.c      ****     PRESSED_KEY = 0;
  88              		.loc 1 31 0
  89 003a 0022     		movs	r2, #0
  90 003c 1A70     		strb	r2, [r3]
  32:Keypad.c      ****     return temp;    
  33:Keypad.c      **** }
  91              		.loc 1 33 0
  92 003e 7047     		bx	lr
  93              	.LVL6:
  94              	.L7:
  95              		.cfi_def_cfa_offset 8
  96              		.cfi_offset 4, -8
  97              		.cfi_offset 14, -4
  98              	.LBB3:
  27:Keypad.c      ****         return from_uart;
  99              		.loc 1 27 0
 100 0040 0020     		movs	r0, #0
 101 0042 10BD     		pop	{r4, pc}
 102              	.LVL7:
 103              	.L8:
  28:Keypad.c      ****     }
 104              		.loc 1 28 0
 105 0044 2046     		mov	r0, r4
 106              	.LBE3:
 107              		.loc 1 33 0
 108 0046 10BD     		pop	{r4, pc}
 109              	.LVL8:
 110              	.L11:
 111              		.align	2
 112              	.L10:
 113 0048 00000000 		.word	COMMUNICATION_MODE
 114 004c 00000000 		.word	.LC0
 115 0050 00000000 		.word	.LANCHOR0
 116              		.cfi_endproc
 117              	.LFE63:
 118              		.size	get_pressed_key, .-get_pressed_key
 119              		.section	.text.set_result_when_relesed,"ax",%progbits
 120              		.align	2
 121              		.global	set_result_when_relesed
 122              		.thumb
 123              		.thumb_func
 124              		.type	set_result_when_relesed, %function
 125              	set_result_when_relesed:
 126              	.LFB64:
  34:Keypad.c      **** 
  35:Keypad.c      **** /*
  36:Keypad.c      **** Csak akkor allitom be az erteket ujra, ha felengettem egy azota a billenyut.
  37:Keypad.c      **** Igy ha folyamatosan nyomva tartok egy gombot, akkor csak egye lenyomast vesz figyelembe
  38:Keypad.c      **** */
  39:Keypad.c      **** void set_result_when_relesed(char pressed) {
 127              		.loc 1 39 0
 128              		.cfi_startproc
 129              		@ args = 0, pretend = 0, frame = 0
ARM GAS  C:\Users\David\AppData\Local\Temp\ccfC7MHB.s 			page 4


 130              		@ frame_needed = 0, uses_anonymous_args = 0
 131              		@ link register save eliminated.
 132              	.LVL9:
  40:Keypad.c      ****     if (pressed != 0 && waiting_for_relese == 0u) {
 133              		.loc 1 40 0
 134 0000 0246     		mov	r2, r0
 135 0002 30B1     		cbz	r0, .L13
 136              		.loc 1 40 0 is_stmt 0 discriminator 1
 137 0004 074B     		ldr	r3, .L15
 138 0006 5B78     		ldrb	r3, [r3, #1]	@ zero_extendqisi2
 139 0008 1BB9     		cbnz	r3, .L13
  41:Keypad.c      ****         PRESSED_KEY = pressed;
 140              		.loc 1 41 0 is_stmt 1
 141 000a 064B     		ldr	r3, .L15
 142 000c 1870     		strb	r0, [r3]
  42:Keypad.c      ****         waiting_for_relese = 1u;
 143              		.loc 1 42 0
 144 000e 0121     		movs	r1, #1
 145 0010 5970     		strb	r1, [r3, #1]
 146              	.L13:
  43:Keypad.c      ****     }
  44:Keypad.c      ****     if (waiting_for_relese == 1u && pressed == 0)
 147              		.loc 1 44 0
 148 0012 044B     		ldr	r3, .L15
 149 0014 5B78     		ldrb	r3, [r3, #1]	@ zero_extendqisi2
 150 0016 012B     		cmp	r3, #1
 151 0018 02D1     		bne	.L12
 152              		.loc 1 44 0 is_stmt 0 discriminator 1
 153 001a 0AB9     		cbnz	r2, .L12
  45:Keypad.c      ****         waiting_for_relese = 0u;
 154              		.loc 1 45 0 is_stmt 1
 155 001c 014B     		ldr	r3, .L15
 156 001e 5A70     		strb	r2, [r3, #1]
 157              	.L12:
 158 0020 7047     		bx	lr
 159              	.L16:
 160 0022 00BF     		.align	2
 161              	.L15:
 162 0024 00000000 		.word	.LANCHOR0
 163              		.cfi_endproc
 164              	.LFE64:
 165              		.size	set_result_when_relesed, .-set_result_when_relesed
 166              		.section	.text.readKey,"ax",%progbits
 167              		.align	2
 168              		.global	readKey
 169              		.thumb
 170              		.thumb_func
 171              		.type	readKey, %function
 172              	readKey:
 173              	.LFB65:
  46:Keypad.c      **** }
  47:Keypad.c      **** 
  48:Keypad.c      **** 
  49:Keypad.c      **** /* 
  50:Keypad.c      **** Megnezem, hogy van e lenyomott billentyu, ha nincs 0-s erteket ad,
  51:Keypad.c      **** ha van akkor a billenyu ASCII kodjaval. 
  52:Keypad.c      **** Gomb felengedesekor menek csak! .*/
ARM GAS  C:\Users\David\AppData\Local\Temp\ccfC7MHB.s 			page 5


  53:Keypad.c      **** void readKey() {
 174              		.loc 1 53 0
 175              		.cfi_startproc
 176              		@ args = 0, pretend = 0, frame = 0
 177              		@ frame_needed = 0, uses_anonymous_args = 0
 178 0000 10B5     		push	{r4, lr}
 179              		.cfi_def_cfa_offset 8
 180              		.cfi_offset 4, -8
 181              		.cfi_offset 14, -4
 182              	.LVL10:
  54:Keypad.c      ****     
  55:Keypad.c      ****    
  56:Keypad.c      ****     //Feszultseget adok egyes sorokra, megnezem az oszlopokat.
  57:Keypad.c      ****     //Egyszerre csak egy gomb megnyomasat tamogatja a renszer.  (egyelore?) 
  58:Keypad.c      ****     
  59:Keypad.c      ****     char pressed = 0;
  60:Keypad.c      ****     
  61:Keypad.c      ****     ROW1_Write(1u);
 183              		.loc 1 61 0
 184 0002 0120     		movs	r0, #1
 185 0004 FFF7FEFF 		bl	ROW1_Write
 186              	.LVL11:
  62:Keypad.c      ****     pressed = COL1_Read() != 0 ? '1' : pressed;    
 187              		.loc 1 62 0
 188 0008 FFF7FEFF 		bl	COL1_Read
 189              	.LVL12:
 190 000c 08B9     		cbnz	r0, .L38
 191 000e 0024     		movs	r4, #0
 192 0010 00E0     		b	.L18
 193              	.L38:
 194 0012 3124     		movs	r4, #49
 195              	.L18:
 196              	.LVL13:
  63:Keypad.c      ****     pressed = COL2_Read() != 0 ? '2' : pressed;
 197              		.loc 1 63 0 discriminator 4
 198 0014 FFF7FEFF 		bl	COL2_Read
 199              	.LVL14:
 200 0018 00B1     		cbz	r0, .L19
 201              		.loc 1 63 0 is_stmt 0
 202 001a 3224     		movs	r4, #50
 203              	.LVL15:
 204              	.L19:
  64:Keypad.c      ****     pressed = COL3_Read() != 0 ? '3' : pressed;
 205              		.loc 1 64 0 is_stmt 1 discriminator 4
 206 001c FFF7FEFF 		bl	COL3_Read
 207              	.LVL16:
 208 0020 00B1     		cbz	r0, .L20
 209              		.loc 1 64 0 is_stmt 0
 210 0022 3324     		movs	r4, #51
 211              	.LVL17:
 212              	.L20:
  65:Keypad.c      ****     pressed = COL4_Read() != 0 ? 'A' : pressed;
 213              		.loc 1 65 0 is_stmt 1 discriminator 4
 214 0024 FFF7FEFF 		bl	COL4_Read
 215              	.LVL18:
 216 0028 00B1     		cbz	r0, .L21
 217              		.loc 1 65 0 is_stmt 0
ARM GAS  C:\Users\David\AppData\Local\Temp\ccfC7MHB.s 			page 6


 218 002a 4124     		movs	r4, #65
 219              	.LVL19:
 220              	.L21:
  66:Keypad.c      ****     
  67:Keypad.c      ****     //Egy valamit nyomva tartok
  68:Keypad.c      ****     if (pressed != 0) {
 221              		.loc 1 68 0 is_stmt 1 discriminator 4
 222 002c 34B1     		cbz	r4, .L22
  69:Keypad.c      ****          ROW1_Write(0u);
 223              		.loc 1 69 0
 224 002e 0020     		movs	r0, #0
 225 0030 FFF7FEFF 		bl	ROW1_Write
 226              	.LVL20:
  70:Keypad.c      ****          set_result_when_relesed(pressed);
 227              		.loc 1 70 0
 228 0034 2046     		mov	r0, r4
 229 0036 FFF7FEFF 		bl	set_result_when_relesed
 230              	.LVL21:
  71:Keypad.c      ****          return;
 231              		.loc 1 71 0
 232 003a 10BD     		pop	{r4, pc}
 233              	.LVL22:
 234              	.L22:
  72:Keypad.c      ****     }
  73:Keypad.c      ****     
  74:Keypad.c      ****     ROW1_Write(0u);
 235              		.loc 1 74 0
 236 003c 0020     		movs	r0, #0
 237 003e FFF7FEFF 		bl	ROW1_Write
 238              	.LVL23:
  75:Keypad.c      ****     ROW2_Write(1u);
 239              		.loc 1 75 0
 240 0042 0120     		movs	r0, #1
 241 0044 FFF7FEFF 		bl	ROW2_Write
 242              	.LVL24:
  76:Keypad.c      ****    
  77:Keypad.c      ****     pressed = COL1_Read() != 0 ? '4' : pressed;
 243              		.loc 1 77 0
 244 0048 FFF7FEFF 		bl	COL1_Read
 245              	.LVL25:
 246 004c 00B1     		cbz	r0, .L24
 247 004e 3424     		movs	r4, #52
 248              	.LVL26:
 249              	.L24:
  78:Keypad.c      ****     pressed = COL2_Read() != 0 ? '5' : pressed;
 250              		.loc 1 78 0 discriminator 4
 251 0050 FFF7FEFF 		bl	COL2_Read
 252              	.LVL27:
 253 0054 00B1     		cbz	r0, .L25
 254              		.loc 1 78 0 is_stmt 0
 255 0056 3524     		movs	r4, #53
 256              	.LVL28:
 257              	.L25:
  79:Keypad.c      ****     pressed = COL3_Read() != 0 ? '6' : pressed;
 258              		.loc 1 79 0 is_stmt 1 discriminator 4
 259 0058 FFF7FEFF 		bl	COL3_Read
 260              	.LVL29:
ARM GAS  C:\Users\David\AppData\Local\Temp\ccfC7MHB.s 			page 7


 261 005c 00B1     		cbz	r0, .L26
 262              		.loc 1 79 0 is_stmt 0
 263 005e 3624     		movs	r4, #54
 264              	.LVL30:
 265              	.L26:
  80:Keypad.c      ****     pressed = COL4_Read() != 0 ? 'B' : pressed;
 266              		.loc 1 80 0 is_stmt 1 discriminator 4
 267 0060 FFF7FEFF 		bl	COL4_Read
 268              	.LVL31:
 269 0064 00B1     		cbz	r0, .L27
 270              		.loc 1 80 0 is_stmt 0
 271 0066 4224     		movs	r4, #66
 272              	.LVL32:
 273              	.L27:
  81:Keypad.c      ****     
  82:Keypad.c      ****     //Egy valamit nyomva tartok
  83:Keypad.c      ****     if (pressed != 0) {
 274              		.loc 1 83 0 is_stmt 1 discriminator 4
 275 0068 34B1     		cbz	r4, .L28
  84:Keypad.c      ****          ROW2_Write(0u);
 276              		.loc 1 84 0
 277 006a 0020     		movs	r0, #0
 278 006c FFF7FEFF 		bl	ROW2_Write
 279              	.LVL33:
  85:Keypad.c      ****          set_result_when_relesed(pressed);
 280              		.loc 1 85 0
 281 0070 2046     		mov	r0, r4
 282 0072 FFF7FEFF 		bl	set_result_when_relesed
 283              	.LVL34:
  86:Keypad.c      ****          return;
 284              		.loc 1 86 0
 285 0076 10BD     		pop	{r4, pc}
 286              	.LVL35:
 287              	.L28:
  87:Keypad.c      ****     }
  88:Keypad.c      ****     
  89:Keypad.c      ****     ROW2_Write(0u);
 288              		.loc 1 89 0
 289 0078 0020     		movs	r0, #0
 290 007a FFF7FEFF 		bl	ROW2_Write
 291              	.LVL36:
  90:Keypad.c      ****     ROW3_Write(1u);
 292              		.loc 1 90 0
 293 007e 0120     		movs	r0, #1
 294 0080 FFF7FEFF 		bl	ROW3_Write
 295              	.LVL37:
  91:Keypad.c      ****    
  92:Keypad.c      ****     pressed = COL1_Read() != 0 ? '7' : pressed;
 296              		.loc 1 92 0
 297 0084 FFF7FEFF 		bl	COL1_Read
 298              	.LVL38:
 299 0088 00B1     		cbz	r0, .L29
 300 008a 3724     		movs	r4, #55
 301              	.LVL39:
 302              	.L29:
  93:Keypad.c      ****     pressed = COL2_Read() != 0 ? '8' : pressed;
 303              		.loc 1 93 0 discriminator 4
ARM GAS  C:\Users\David\AppData\Local\Temp\ccfC7MHB.s 			page 8


 304 008c FFF7FEFF 		bl	COL2_Read
 305              	.LVL40:
 306 0090 00B1     		cbz	r0, .L30
 307              		.loc 1 93 0 is_stmt 0
 308 0092 3824     		movs	r4, #56
 309              	.LVL41:
 310              	.L30:
  94:Keypad.c      ****     pressed = COL3_Read() != 0 ? '9' : pressed;
 311              		.loc 1 94 0 is_stmt 1 discriminator 4
 312 0094 FFF7FEFF 		bl	COL3_Read
 313              	.LVL42:
 314 0098 00B1     		cbz	r0, .L31
 315              		.loc 1 94 0 is_stmt 0
 316 009a 3924     		movs	r4, #57
 317              	.LVL43:
 318              	.L31:
  95:Keypad.c      ****     pressed = COL4_Read() != 0 ? 'C' : pressed;
 319              		.loc 1 95 0 is_stmt 1 discriminator 4
 320 009c FFF7FEFF 		bl	COL4_Read
 321              	.LVL44:
 322 00a0 00B1     		cbz	r0, .L32
 323              		.loc 1 95 0 is_stmt 0
 324 00a2 4324     		movs	r4, #67
 325              	.LVL45:
 326              	.L32:
  96:Keypad.c      ****     
  97:Keypad.c      ****     //Egy valamit nyomva tartok
  98:Keypad.c      ****     if (pressed != 0) {
 327              		.loc 1 98 0 is_stmt 1 discriminator 4
 328 00a4 34B1     		cbz	r4, .L33
  99:Keypad.c      ****          ROW3_Write(0u);
 329              		.loc 1 99 0
 330 00a6 0020     		movs	r0, #0
 331 00a8 FFF7FEFF 		bl	ROW3_Write
 332              	.LVL46:
 100:Keypad.c      ****          set_result_when_relesed(pressed);
 333              		.loc 1 100 0
 334 00ac 2046     		mov	r0, r4
 335 00ae FFF7FEFF 		bl	set_result_when_relesed
 336              	.LVL47:
 101:Keypad.c      ****          return;
 337              		.loc 1 101 0
 338 00b2 10BD     		pop	{r4, pc}
 339              	.LVL48:
 340              	.L33:
 102:Keypad.c      ****     }
 103:Keypad.c      ****     
 104:Keypad.c      ****     ROW3_Write(0u);
 341              		.loc 1 104 0
 342 00b4 0020     		movs	r0, #0
 343 00b6 FFF7FEFF 		bl	ROW3_Write
 344              	.LVL49:
 105:Keypad.c      ****     ROW4_Write(1u);
 345              		.loc 1 105 0
 346 00ba 0120     		movs	r0, #1
 347 00bc FFF7FEFF 		bl	ROW4_Write
 348              	.LVL50:
ARM GAS  C:\Users\David\AppData\Local\Temp\ccfC7MHB.s 			page 9


 106:Keypad.c      ****    
 107:Keypad.c      ****     pressed = COL1_Read() != 0 ? '*' : pressed;
 349              		.loc 1 107 0
 350 00c0 FFF7FEFF 		bl	COL1_Read
 351              	.LVL51:
 352 00c4 00B1     		cbz	r0, .L34
 353 00c6 2A24     		movs	r4, #42
 354              	.LVL52:
 355              	.L34:
 108:Keypad.c      ****     pressed = COL2_Read() != 0 ? '0' : pressed;
 356              		.loc 1 108 0 discriminator 4
 357 00c8 FFF7FEFF 		bl	COL2_Read
 358              	.LVL53:
 359 00cc 00B1     		cbz	r0, .L35
 360              		.loc 1 108 0 is_stmt 0
 361 00ce 3024     		movs	r4, #48
 362              	.LVL54:
 363              	.L35:
 109:Keypad.c      ****     pressed = COL3_Read() != 0 ? '#' : pressed;
 364              		.loc 1 109 0 is_stmt 1 discriminator 4
 365 00d0 FFF7FEFF 		bl	COL3_Read
 366              	.LVL55:
 367 00d4 00B1     		cbz	r0, .L36
 368              		.loc 1 109 0 is_stmt 0
 369 00d6 2324     		movs	r4, #35
 370              	.LVL56:
 371              	.L36:
 110:Keypad.c      ****     pressed = COL4_Read() != 0 ? 'D' : pressed;
 372              		.loc 1 110 0 is_stmt 1 discriminator 4
 373 00d8 FFF7FEFF 		bl	COL4_Read
 374              	.LVL57:
 375 00dc 00B1     		cbz	r0, .L37
 376              		.loc 1 110 0 is_stmt 0
 377 00de 4424     		movs	r4, #68
 378              	.LVL58:
 379              	.L37:
 111:Keypad.c      ****     ROW4_Write(0u);   
 380              		.loc 1 111 0 is_stmt 1 discriminator 4
 381 00e0 0020     		movs	r0, #0
 382 00e2 FFF7FEFF 		bl	ROW4_Write
 383              	.LVL59:
 112:Keypad.c      ****     
 113:Keypad.c      ****     
 114:Keypad.c      ****     set_result_when_relesed(pressed);
 384              		.loc 1 114 0 discriminator 4
 385 00e6 2046     		mov	r0, r4
 386 00e8 FFF7FEFF 		bl	set_result_when_relesed
 387              	.LVL60:
 388 00ec 10BD     		pop	{r4, pc}
 389              		.cfi_endproc
 390              	.LFE65:
 391              		.size	readKey, .-readKey
 392              		.global	PRESSED_KEY
 393              		.global	waiting_for_relese
 394 00ee 00BF     		.section	.rodata.str1.4,"aMS",%progbits,1
 395              		.align	2
 396              	.LC0:
ARM GAS  C:\Users\David\AppData\Local\Temp\ccfC7MHB.s 			page 10


 397 0000 56697373 		.ascii	"Visszavaltas normal uzemmodba. \015\012\000"
 397      7A617661 
 397      6C746173 
 397      206E6F72 
 397      6D616C20 
 398              		.bss
 399              		.set	.LANCHOR0,. + 0
 400              		.type	PRESSED_KEY, %object
 401              		.size	PRESSED_KEY, 1
 402              	PRESSED_KEY:
 403 0000 00       		.space	1
 404              		.type	waiting_for_relese, %object
 405              		.size	waiting_for_relese, 1
 406              	waiting_for_relese:
 407 0001 00       		.space	1
 408              		.text
 409              	.Letext0:
 410              		.file 2 "c:\\program files (x86)\\cypress\\psoc creator\\4.4\\psoc creator\\import\\gnu\\arm\\5.4.
 411              		.file 3 "c:\\program files (x86)\\cypress\\psoc creator\\4.4\\psoc creator\\import\\gnu\\arm\\5.4.
 412              		.file 4 "Generated_Source\\PSoC5/cytypes.h"
 413              		.file 5 "Generated_Source\\PSoC5/core_cm3.h"
 414              		.file 6 "SettingsHelper.h"
 415              		.file 7 "Generated_Source\\PSoC5/UART.h"
 416              		.file 8 "Generated_Source\\PSoC5/UART_ESP.h"
 417              		.file 9 "Generated_Source\\PSoC5/ROW1.h"
 418              		.file 10 "Generated_Source\\PSoC5/COL1.h"
 419              		.file 11 "Generated_Source\\PSoC5/COL2.h"
 420              		.file 12 "Generated_Source\\PSoC5/COL3.h"
 421              		.file 13 "Generated_Source\\PSoC5/COL4.h"
 422              		.file 14 "Generated_Source\\PSoC5/ROW2.h"
 423              		.file 15 "Generated_Source\\PSoC5/ROW3.h"
 424              		.file 16 "Generated_Source\\PSoC5/ROW4.h"