ARM GAS  C:\Users\David\AppData\Local\Temp\ccEOt3tG.s 			page 1


   1              		.syntax unified
   2              		.cpu cortex-m3
   3              		.fpu softvfp
   4              		.eabi_attribute 20, 1
   5              		.eabi_attribute 21, 1
   6              		.eabi_attribute 23, 3
   7              		.eabi_attribute 24, 1
   8              		.eabi_attribute 25, 1
   9              		.eabi_attribute 26, 1
  10              		.eabi_attribute 30, 1
  11              		.eabi_attribute 34, 1
  12              		.eabi_attribute 18, 4
  13              		.thumb
  14              		.syntax unified
  15              		.file	"main.c"
  16              		.text
  17              	.Ltext0:
  18              		.cfi_sections	.debug_frame
  19              		.section	.text.start_tone,"ax",%progbits
  20              		.align	2
  21              		.global	start_tone
  22              		.thumb
  23              		.thumb_func
  24              		.type	start_tone, %function
  25              	start_tone:
  26              	.LFB63:
  27              		.file 1 "main.c"
   1:main.c        **** /* ========================================
   2:main.c        ****  *
   3:main.c        **** Riaszto kodja  - Felkesz / Vaz eddig
   4:main.c        ****  *
   5:main.c        ****  * ========================================
   6:main.c        **** */
   7:main.c        **** #include "project.h"
   8:main.c        **** #include "ds1302.h"
   9:main.c        **** #include "PeriodicTask.h"
  10:main.c        **** #include "TaskFIFO.h"
  11:main.c        **** #include "Keypad.h"
  12:main.c        **** #include "hb100movement.h"
  13:main.c        **** #include "GSMHandler.h"
  14:main.c        **** #include "EEPROM_Helper.h"
  15:main.c        **** 
  16:main.c        **** //KONTSTANSOK - Majd az EEPROM-ban tarolom, es lehet allitgatni
  17:main.c        **** char* CODE = "4321";
  18:main.c        **** uint8 NIGHT_FROM = 0;
  19:main.c        **** uint8 NIGHT_TO = 24;
  20:main.c        **** 
  21:main.c        **** 
  22:main.c        **** //allapotok
  23:main.c        **** typedef enum state {figyelo, passziv, riasztas} state;
  24:main.c        **** typedef enum substate {figyelo_varakozo,figylo_deaktivalo, passziv_felkeszules, passziv_varakozo, r
  25:main.c        **** 
  26:main.c        **** 
  27:main.c        **** //ALLAPOTOK
  28:main.c        ****  state actual_state = passziv;
  29:main.c        ****  substate actual_substate = passziv_varakozo;
  30:main.c        **** 
ARM GAS  C:\Users\David\AppData\Local\Temp\ccEOt3tG.s 			page 2


  31:main.c        **** char alart_reason[16];
  32:main.c        **** 
  33:main.c        **** 
  34:main.c        **** /*
  35:main.c        **** Csipogok egy adott frekvencian, egy adott ideig.
  36:main.c        **** Olyat probalok csinalni, mint az arduinos tone()
  37:main.c        **** */
  38:main.c        **** void start_tone(uint16 freq) {
  28              		.loc 1 38 0
  29              		.cfi_startproc
  30              		@ args = 0, pretend = 0, frame = 0
  31              		@ frame_needed = 0, uses_anonymous_args = 0
  32              	.LVL0:
  33 0000 10B5     		push	{r4, lr}
  34              		.cfi_def_cfa_offset 8
  35              		.cfi_offset 4, -8
  36              		.cfi_offset 14, -4
  37              	.LVL1:
  39:main.c        ****     //beallitom egy olyan periodust a PWM-nek, ami a freq
  40:main.c        ****     uint16 clk = 20000; 
  41:main.c        ****     // period*freq = 20000 
  42:main.c        ****     uint16 period = clk/freq;
  38              		.loc 1 42 0
  39 0002 44F62064 		movw	r4, #20000
  40 0006 B4FBF0F4 		udiv	r4, r4, r0
  41              	.LVL2:
  43:main.c        ****     PWM_BEEPER_STATUS;
  42              		.loc 1 43 0
  43 000a 064B     		ldr	r3, .L3
  44 000c 1B78     		ldrb	r3, [r3]	@ zero_extendqisi2
  44:main.c        ****     PWM_BEEPER_WritePeriod(period);
  45              		.loc 1 44 0
  46 000e E0B2     		uxtb	r0, r4
  47              	.LVL3:
  48 0010 FFF7FEFF 		bl	PWM_BEEPER_WritePeriod
  49              	.LVL4:
  45:main.c        ****     PWM_BEEPER_WriteCompare(period/2);
  50              		.loc 1 45 0
  51 0014 C4F34700 		ubfx	r0, r4, #1, #8
  52 0018 FFF7FEFF 		bl	PWM_BEEPER_WriteCompare
  53              	.LVL5:
  46:main.c        ****     PWM_BEEPER_Start();
  54              		.loc 1 46 0
  55 001c FFF7FEFF 		bl	PWM_BEEPER_Start
  56              	.LVL6:
  57 0020 10BD     		pop	{r4, pc}
  58              	.LVL7:
  59              	.L4:
  60 0022 00BF     		.align	2
  61              	.L3:
  62 0024 0F4F0040 		.word	1073762063
  63              		.cfi_endproc
  64              	.LFE63:
  65              		.size	start_tone, .-start_tone
  66              		.section	.text.noTone,"ax",%progbits
  67              		.align	2
  68              		.global	noTone
ARM GAS  C:\Users\David\AppData\Local\Temp\ccEOt3tG.s 			page 3


  69              		.thumb
  70              		.thumb_func
  71              		.type	noTone, %function
  72              	noTone:
  73              	.LFB64:
  47:main.c        **** }
  48:main.c        **** 
  49:main.c        **** void noTone() {
  74              		.loc 1 49 0
  75              		.cfi_startproc
  76              		@ args = 0, pretend = 0, frame = 0
  77              		@ frame_needed = 0, uses_anonymous_args = 0
  78 0000 08B5     		push	{r3, lr}
  79              		.cfi_def_cfa_offset 8
  80              		.cfi_offset 3, -8
  81              		.cfi_offset 14, -4
  50:main.c        ****     PWM_BEEPER_WriteCompare(0);
  82              		.loc 1 50 0
  83 0002 0020     		movs	r0, #0
  84 0004 FFF7FEFF 		bl	PWM_BEEPER_WriteCompare
  85              	.LVL8:
  51:main.c        ****     PWM_BEEPER_Stop();
  86              		.loc 1 51 0
  87 0008 FFF7FEFF 		bl	PWM_BEEPER_Stop
  88              	.LVL9:
  89 000c 08BD     		pop	{r3, pc}
  90              		.cfi_endproc
  91              	.LFE64:
  92              		.size	noTone, .-noTone
  93 000e 00BF     		.section	.text.TIMER_ISR,"ax",%progbits
  94              		.align	2
  95              		.global	TIMER_ISR
  96              		.thumb
  97              		.thumb_func
  98              		.type	TIMER_ISR, %function
  99              	TIMER_ISR:
 100              	.LFB65:
  52:main.c        **** }
  53:main.c        **** 
  54:main.c        **** periodic_task_list p_tasks;
  55:main.c        **** TaskFIFO tone_fifo;
  56:main.c        **** TaskFIFO gsm_fifo;
  57:main.c        **** 
  58:main.c        **** //1 ms-onkent
  59:main.c        **** CY_ISR(TIMER_ISR)
  60:main.c        **** {
 101              		.loc 1 60 0
 102              		.cfi_startproc
 103              		@ args = 0, pretend = 0, frame = 0
 104              		@ frame_needed = 0, uses_anonymous_args = 0
 105 0000 08B5     		push	{r3, lr}
 106              		.cfi_def_cfa_offset 8
 107              		.cfi_offset 3, -8
 108              		.cfi_offset 14, -4
  61:main.c        ****     
  62:main.c        ****   run_permitted_tasks_and_decrement_counters(&p_tasks); 
 109              		.loc 1 62 0
ARM GAS  C:\Users\David\AppData\Local\Temp\ccEOt3tG.s 			page 4


 110 0002 0648     		ldr	r0, .L9
 111 0004 FFF7FEFF 		bl	run_permitted_tasks_and_decrement_counters
 112              	.LVL10:
  63:main.c        ****   run_next_task_when_available(&tone_fifo);
 113              		.loc 1 63 0
 114 0008 0548     		ldr	r0, .L9+4
 115 000a FFF7FEFF 		bl	run_next_task_when_available
 116              	.LVL11:
  64:main.c        ****   run_next_task_when_available(&gsm_fifo);
 117              		.loc 1 64 0
 118 000e 0548     		ldr	r0, .L9+8
 119 0010 FFF7FEFF 		bl	run_next_task_when_available
 120              	.LVL12:
  65:main.c        **** 
  66:main.c        **** 
  67:main.c        ****     Timer_ReadStatusRegister();
 121              		.loc 1 67 0
 122 0014 FFF7FEFF 		bl	Timer_ReadStatusRegister
 123              	.LVL13:
 124 0018 08BD     		pop	{r3, pc}
 125              	.L10:
 126 001a 00BF     		.align	2
 127              	.L9:
 128 001c 00000000 		.word	p_tasks
 129 0020 00000000 		.word	tone_fifo
 130 0024 00000000 		.word	gsm_fifo
 131              		.cfi_endproc
 132              	.LFE65:
 133              		.size	TIMER_ISR, .-TIMER_ISR
 134              		.section	.text.check_photoresistor,"ax",%progbits
 135              		.align	2
 136              		.global	check_photoresistor
 137              		.thumb
 138              		.thumb_func
 139              		.type	check_photoresistor, %function
 140              	check_photoresistor:
 141              	.LFB66:
  68:main.c        **** }
  69:main.c        **** 
  70:main.c        **** 
  71:main.c        **** void check_photoresistor(uint8 * need_alert){
 142              		.loc 1 71 0
 143              		.cfi_startproc
 144              		@ args = 0, pretend = 0, frame = 8
 145              		@ frame_needed = 0, uses_anonymous_args = 0
 146              	.LVL14:
 147 0000 10B5     		push	{r4, lr}
 148              		.cfi_def_cfa_offset 8
 149              		.cfi_offset 4, -8
 150              		.cfi_offset 14, -4
 151 0002 82B0     		sub	sp, sp, #8
 152              		.cfi_def_cfa_offset 16
 153 0004 0446     		mov	r4, r0
  72:main.c        ****     volatile uint16 light = ADC_SAR_PR_GetResult16();
 154              		.loc 1 72 0
 155 0006 FFF7FEFF 		bl	ADC_SAR_PR_GetResult16
 156              	.LVL15:
ARM GAS  C:\Users\David\AppData\Local\Temp\ccEOt3tG.s 			page 5


 157 000a 80B2     		uxth	r0, r0
 158 000c ADF80600 		strh	r0, [sp, #6]	@ movhi
  73:main.c        ****     
  74:main.c        ****     //1. ha ejszaka van, viszont vilagos, akkor riasztok
  75:main.c        ****     volatile uint8 h = get_hour();
 159              		.loc 1 75 0
 160 0010 FFF7FEFF 		bl	get_hour
 161              	.LVL16:
 162 0014 C0B2     		uxtb	r0, r0
 163 0016 8DF80500 		strb	r0, [sp, #5]
  76:main.c        ****     if (light < 1000 && h > NIGHT_FROM && h < NIGHT_TO) {
 164              		.loc 1 76 0
 165 001a BDF80630 		ldrh	r3, [sp, #6]
 166 001e 9BB2     		uxth	r3, r3
 167 0020 B3F57A7F 		cmp	r3, #1000
 168 0024 0FD2     		bcs	.L12
 169              		.loc 1 76 0 is_stmt 0 discriminator 1
 170 0026 9DF80530 		ldrb	r3, [sp, #5]	@ zero_extendqisi2
 171 002a DBB2     		uxtb	r3, r3
 172 002c 194A     		ldr	r2, .L16
 173 002e 1278     		ldrb	r2, [r2]	@ zero_extendqisi2
 174 0030 9342     		cmp	r3, r2
 175 0032 08D9     		bls	.L12
 176              		.loc 1 76 0 discriminator 2
 177 0034 9DF80530 		ldrb	r3, [sp, #5]	@ zero_extendqisi2
 178 0038 DBB2     		uxtb	r3, r3
 179 003a 174A     		ldr	r2, .L16+4
 180 003c 1278     		ldrb	r2, [r2]	@ zero_extendqisi2
 181 003e 9342     		cmp	r3, r2
 182 0040 01D2     		bcs	.L12
  77:main.c        ****        *need_alert = 1u;         
 183              		.loc 1 77 0 is_stmt 1
 184 0042 0123     		movs	r3, #1
 185 0044 2370     		strb	r3, [r4]
 186              	.L12:
  78:main.c        ****     }
  79:main.c        ****    
  80:main.c        ****      PWM_BACKLIGHT_STATUS; 
 187              		.loc 1 80 0
 188 0046 154B     		ldr	r3, .L16+8
 189 0048 1B78     		ldrb	r3, [r3]	@ zero_extendqisi2
  81:main.c        ****    // 2 .kijelzo hattervilagitasanak allitasa
  82:main.c        ****     if (light > 1500) {
 190              		.loc 1 82 0
 191 004a BDF80630 		ldrh	r3, [sp, #6]
 192 004e 9BB2     		uxth	r3, r3
 193 0050 40F2DC52 		movw	r2, #1500
 194 0054 9342     		cmp	r3, r2
 195 0056 18D9     		bls	.L13
 196              	.LBB2:
  83:main.c        ****         uint16 test = 1+((light-1500)/100);
 197              		.loc 1 83 0
 198 0058 BDF80620 		ldrh	r2, [sp, #6]
 199 005c 92B2     		uxth	r2, r2
 200 005e A2F2DC52 		subw	r2, r2, #1500
 201 0062 0F4B     		ldr	r3, .L16+12
 202 0064 83FB0213 		smull	r1, r3, r3, r2
ARM GAS  C:\Users\David\AppData\Local\Temp\ccEOt3tG.s 			page 6


 203 0068 D217     		asrs	r2, r2, #31
 204 006a C2EB6313 		rsb	r3, r2, r3, asr #5
 205 006e 0133     		adds	r3, r3, #1
 206 0070 9BB2     		uxth	r3, r3
 207              	.LVL17:
  84:main.c        ****         uint16 dutycle = test*20 > 350 ? 350 : test*20;
 208              		.loc 1 84 0
 209 0072 03EB8303 		add	r3, r3, r3, lsl #2
 210              	.LVL18:
 211 0076 9800     		lsls	r0, r3, #2
 212 0078 B0F5AF7F 		cmp	r0, #350
 213 007c A8BF     		it	ge
 214 007e 4FF4AF70 		movge	r0, #350
 215 0082 80B2     		uxth	r0, r0
 216              	.LVL19:
  85:main.c        ****         PWM_BACKLIGHT_WriteCompare(dutycle);
 217              		.loc 1 85 0
 218 0084 FFF7FEFF 		bl	PWM_BACKLIGHT_WriteCompare
 219              	.LVL20:
 220              	.LBE2:
 221 0088 02E0     		b	.L11
 222              	.L13:
  86:main.c        ****     } 
  87:main.c        ****     else {    
  88:main.c        ****         PWM_BACKLIGHT_WriteCompare(0u);
 223              		.loc 1 88 0
 224 008a 0020     		movs	r0, #0
 225 008c FFF7FEFF 		bl	PWM_BACKLIGHT_WriteCompare
 226              	.LVL21:
 227              	.L11:
  89:main.c        ****     }
  90:main.c        ****    
  91:main.c        **** }
 228              		.loc 1 91 0
 229 0090 02B0     		add	sp, sp, #8
 230              		.cfi_def_cfa_offset 8
 231              		@ sp needed
 232 0092 10BD     		pop	{r4, pc}
 233              	.LVL22:
 234              	.L17:
 235              		.align	2
 236              	.L16:
 237 0094 00000000 		.word	.LANCHOR0
 238 0098 00000000 		.word	.LANCHOR1
 239 009c 034F0040 		.word	1073762051
 240 00a0 1F85EB51 		.word	1374389535
 241              		.cfi_endproc
 242              	.LFE66:
 243              		.size	check_photoresistor, .-check_photoresistor
 244              		.section	.text.init,"ax",%progbits
 245              		.align	2
 246              		.global	init
 247              		.thumb
 248              		.thumb_func
 249              		.type	init, %function
 250              	init:
 251              	.LFB67:
ARM GAS  C:\Users\David\AppData\Local\Temp\ccEOt3tG.s 			page 7


  92:main.c        **** 
  93:main.c        **** 
  94:main.c        **** void init() {
 252              		.loc 1 94 0
 253              		.cfi_startproc
 254              		@ args = 0, pretend = 0, frame = 0
 255              		@ frame_needed = 0, uses_anonymous_args = 0
 256 0000 08B5     		push	{r3, lr}
 257              		.cfi_def_cfa_offset 8
 258              		.cfi_offset 3, -8
 259              		.cfi_offset 14, -4
  95:main.c        ****     
  96:main.c        ****     isr_Timer_StartEx(TIMER_ISR);
 260              		.loc 1 96 0
 261 0002 1248     		ldr	r0, .L20
 262 0004 FFF7FEFF 		bl	isr_Timer_StartEx
 263              	.LVL23:
  97:main.c        ****     ADC_SAR_RADAR_IRQ_StartEx(ADC_SAR_RADAR_ISR);
 264              		.loc 1 97 0
 265 0008 1148     		ldr	r0, .L20+4
 266 000a FFF7FEFF 		bl	ADC_SAR_RADAR_IRQ_StartEx
 267              	.LVL24:
  98:main.c        ****     ADC_SAR_RADAR_Start();
 268              		.loc 1 98 0
 269 000e FFF7FEFF 		bl	ADC_SAR_RADAR_Start
 270              	.LVL25:
  99:main.c        ****     ADC_SAR_RADAR_StartConvert();
 271              		.loc 1 99 0
 272 0012 FFF7FEFF 		bl	ADC_SAR_RADAR_StartConvert
 273              	.LVL26:
 100:main.c        ****     ADC_SAR_PR_Start();
 274              		.loc 1 100 0
 275 0016 FFF7FEFF 		bl	ADC_SAR_PR_Start
 276              	.LVL27:
 101:main.c        ****     ADC_SAR_PR_StartConvert();
 277              		.loc 1 101 0
 278 001a FFF7FEFF 		bl	ADC_SAR_PR_StartConvert
 279              	.LVL28:
 102:main.c        ****     Timer_Start();
 280              		.loc 1 102 0
 281 001e FFF7FEFF 		bl	Timer_Start
 282              	.LVL29:
 103:main.c        ****     LCD_Start();
 283              		.loc 1 103 0
 284 0022 FFF7FEFF 		bl	LCD_Start
 285              	.LVL30:
 104:main.c        ****     LCD_Position(0u, 0u);
 286              		.loc 1 104 0
 287 0026 0021     		movs	r1, #0
 288 0028 0846     		mov	r0, r1
 289 002a FFF7FEFF 		bl	LCD_Position
 290              	.LVL31:
 105:main.c        ****     SPIM_Start();
 291              		.loc 1 105 0
 292 002e FFF7FEFF 		bl	SPIM_Start
 293              	.LVL32:
 106:main.c        ****     SPIM_TxDisable();
ARM GAS  C:\Users\David\AppData\Local\Temp\ccEOt3tG.s 			page 8


 294              		.loc 1 106 0
 295 0032 FFF7FEFF 		bl	SPIM_TxDisable
 296              	.LVL33:
 107:main.c        ****     PWM_BACKLIGHT_Start();
 297              		.loc 1 107 0
 298 0036 FFF7FEFF 		bl	PWM_BACKLIGHT_Start
 299              	.LVL34:
 108:main.c        ****     UART_Start();
 300              		.loc 1 108 0
 301 003a FFF7FEFF 		bl	UART_Start
 302              	.LVL35:
 109:main.c        ****     UART_GSM_Start();
 303              		.loc 1 109 0
 304 003e FFF7FEFF 		bl	UART_GSM_Start
 305              	.LVL36:
 110:main.c        ****     VDAC8_Start();
 306              		.loc 1 110 0
 307 0042 FFF7FEFF 		bl	VDAC8_Start
 308              	.LVL37:
 111:main.c        ****     EEPROM_Start();
 309              		.loc 1 111 0
 310 0046 FFF7FEFF 		bl	EEPROM_Start
 311              	.LVL38:
 312 004a 08BD     		pop	{r3, pc}
 313              	.L21:
 314              		.align	2
 315              	.L20:
 316 004c 00000000 		.word	TIMER_ISR
 317 0050 00000000 		.word	ADC_SAR_RADAR_ISR
 318              		.cfi_endproc
 319              	.LFE67:
 320              		.size	init, .-init
 321              		.section	.text.try_to_read_code_from_keyboard,"ax",%progbits
 322              		.align	2
 323              		.global	try_to_read_code_from_keyboard
 324              		.thumb
 325              		.thumb_func
 326              		.type	try_to_read_code_from_keyboard, %function
 327              	try_to_read_code_from_keyboard:
 328              	.LFB68:
 112:main.c        **** }
 113:main.c        **** 
 114:main.c        **** char code_buffer[4];
 115:main.c        **** uint8 code_buffer_ind = 0;
 116:main.c        **** /*
 117:main.c        **** Megnezi, hogy nincs e eppen a helyes kod beirva.
 118:main.c        **** */
 119:main.c        **** uint8 try_to_read_code_from_keyboard() {
 329              		.loc 1 119 0
 330              		.cfi_startproc
 331              		@ args = 0, pretend = 0, frame = 0
 332              		@ frame_needed = 0, uses_anonymous_args = 0
 333 0000 10B5     		push	{r4, lr}
 334              		.cfi_def_cfa_offset 8
 335              		.cfi_offset 4, -8
 336              		.cfi_offset 14, -4
 120:main.c        ****     uint8 pressed_key = get_pressed_key();
ARM GAS  C:\Users\David\AppData\Local\Temp\ccEOt3tG.s 			page 9


 337              		.loc 1 120 0
 338 0002 FFF7FEFF 		bl	get_pressed_key
 339              	.LVL39:
 121:main.c        ****     if (pressed_key != 0) { //gombnyomas eseten -  ilyenkor feletelezem, hogy a kodot irom be
 340              		.loc 1 121 0
 341 0006 0028     		cmp	r0, #0
 342 0008 3CD0     		beq	.L28
 343 000a 0446     		mov	r4, r0
 122:main.c        ****     
 123:main.c        ****     if (!code_buffer_ind) {
 344              		.loc 1 123 0
 345 000c 1F4B     		ldr	r3, .L33
 346 000e 5B78     		ldrb	r3, [r3, #1]	@ zero_extendqisi2
 347 0010 33B9     		cbnz	r3, .L24
 124:main.c        ****         LCD_ClearDisplay();
 348              		.loc 1 124 0
 349 0012 0120     		movs	r0, #1
 350              	.LVL40:
 351 0014 FFF7FEFF 		bl	LCD_WriteControl
 352              	.LVL41:
 125:main.c        ****         LCD_Position(1u, 0u);
 353              		.loc 1 125 0
 354 0018 0021     		movs	r1, #0
 355 001a 0120     		movs	r0, #1
 356 001c FFF7FEFF 		bl	LCD_Position
 357              	.LVL42:
 358              	.L24:
 126:main.c        ****     }    
 127:main.c        ****         
 128:main.c        ****     LCD_PutChar('*');
 359              		.loc 1 128 0
 360 0020 2A20     		movs	r0, #42
 361 0022 FFF7FEFF 		bl	LCD_PutChar
 362              	.LVL43:
 129:main.c        ****     code_buffer[code_buffer_ind++] = pressed_key;
 363              		.loc 1 129 0
 364 0026 1949     		ldr	r1, .L33
 365 0028 4A78     		ldrb	r2, [r1, #1]	@ zero_extendqisi2
 366 002a 531C     		adds	r3, r2, #1
 367 002c DBB2     		uxtb	r3, r3
 368 002e 4B70     		strb	r3, [r1, #1]
 369 0030 1749     		ldr	r1, .L33+4
 370 0032 8C54     		strb	r4, [r1, r2]
 371              	.LVL44:
 130:main.c        ****     pressed_key = 0;                
 131:main.c        ****     if (code_buffer_ind == 4) {
 372              		.loc 1 131 0
 373 0034 042B     		cmp	r3, #4
 374 0036 0BD0     		beq	.L29
 132:main.c        ****         uint8 result = 1u;
 133:main.c        ****         for (uint8 i = 0; i < 4; i++) {
 134:main.c        ****             if (code_buffer[i] != CODE[i]) {
 135:main.c        ****                 result = 0u;
 136:main.c        ****                 break;
 137:main.c        ****             }
 138:main.c        ****         }
 139:main.c        ****         code_buffer_ind = 0;
ARM GAS  C:\Users\David\AppData\Local\Temp\ccEOt3tG.s 			page 10


 140:main.c        ****         if (result == 0u) {
 141:main.c        ****             LCD_ClearDisplay();
 142:main.c        ****             LCD_Position(0u, 0u);
 143:main.c        ****             LCD_PrintString("Hibas kod!");
 144:main.c        ****             LCD_Position(1u, 0u);
 145:main.c        ****         }
 146:main.c        ****         return  result;
 147:main.c        ****      }
 148:main.c        ****    }
 149:main.c        ****     return 0u;
 375              		.loc 1 149 0
 376 0038 0020     		movs	r0, #0
 377 003a 10BD     		pop	{r4, pc}
 378              	.LVL45:
 379              	.L27:
 380              	.LBB3:
 381              	.LBB4:
 134:main.c        ****                 result = 0u;
 382              		.loc 1 134 0
 383 003c 144A     		ldr	r2, .L33+4
 384 003e D15C     		ldrb	r1, [r2, r3]	@ zero_extendqisi2
 385 0040 144A     		ldr	r2, .L33+8
 386 0042 5268     		ldr	r2, [r2, #4]
 387 0044 D25C     		ldrb	r2, [r2, r3]	@ zero_extendqisi2
 388 0046 9142     		cmp	r1, r2
 389 0048 07D1     		bne	.L30
 133:main.c        ****             if (code_buffer[i] != CODE[i]) {
 390              		.loc 1 133 0 discriminator 2
 391 004a 0133     		adds	r3, r3, #1
 392              	.LVL46:
 393 004c DBB2     		uxtb	r3, r3
 394              	.LVL47:
 395 004e 00E0     		b	.L25
 396              	.LVL48:
 397              	.L29:
 398              	.LBE4:
 399              	.LBE3:
 400 0050 0023     		movs	r3, #0
 401              	.L25:
 402              	.LVL49:
 403              	.LBB7:
 404              	.LBB5:
 133:main.c        ****             if (code_buffer[i] != CODE[i]) {
 405              		.loc 1 133 0 is_stmt 0 discriminator 1
 406 0052 032B     		cmp	r3, #3
 407 0054 F2D9     		bls	.L27
 408              	.LBE5:
 132:main.c        ****         uint8 result = 1u;
 409              		.loc 1 132 0 is_stmt 1
 410 0056 0124     		movs	r4, #1
 411              	.LBB6:
 412 0058 00E0     		b	.L26
 413              	.L30:
 135:main.c        ****                 break;
 414              		.loc 1 135 0
 415 005a 0024     		movs	r4, #0
 416              	.L26:
ARM GAS  C:\Users\David\AppData\Local\Temp\ccEOt3tG.s 			page 11


 417              	.LVL50:
 418              	.LBE6:
 139:main.c        ****         if (result == 0u) {
 419              		.loc 1 139 0
 420 005c 0022     		movs	r2, #0
 421 005e 0B4B     		ldr	r3, .L33
 422              	.LVL51:
 423 0060 5A70     		strb	r2, [r3, #1]
 140:main.c        ****             LCD_ClearDisplay();
 424              		.loc 1 140 0
 425 0062 8CB9     		cbnz	r4, .L31
 141:main.c        ****             LCD_Position(0u, 0u);
 426              		.loc 1 141 0
 427 0064 0120     		movs	r0, #1
 428 0066 FFF7FEFF 		bl	LCD_WriteControl
 429              	.LVL52:
 142:main.c        ****             LCD_PrintString("Hibas kod!");
 430              		.loc 1 142 0
 431 006a 0021     		movs	r1, #0
 432 006c 0846     		mov	r0, r1
 433 006e FFF7FEFF 		bl	LCD_Position
 434              	.LVL53:
 143:main.c        ****             LCD_Position(1u, 0u);
 435              		.loc 1 143 0
 436 0072 0948     		ldr	r0, .L33+12
 437 0074 FFF7FEFF 		bl	LCD_PrintString
 438              	.LVL54:
 144:main.c        ****         }
 439              		.loc 1 144 0
 440 0078 0021     		movs	r1, #0
 441 007a 0120     		movs	r0, #1
 442 007c FFF7FEFF 		bl	LCD_Position
 443              	.LVL55:
 146:main.c        ****      }
 444              		.loc 1 146 0
 445 0080 2046     		mov	r0, r4
 446 0082 10BD     		pop	{r4, pc}
 447              	.LVL56:
 448              	.L28:
 449              	.LBE7:
 450              		.loc 1 149 0
 451 0084 0020     		movs	r0, #0
 452              	.LVL57:
 453 0086 10BD     		pop	{r4, pc}
 454              	.LVL58:
 455              	.L31:
 456              	.LBB8:
 146:main.c        ****      }
 457              		.loc 1 146 0
 458 0088 2046     		mov	r0, r4
 459              	.LBE8:
 150:main.c        **** }
 460              		.loc 1 150 0
 461 008a 10BD     		pop	{r4, pc}
 462              	.LVL59:
 463              	.L34:
 464              		.align	2
ARM GAS  C:\Users\David\AppData\Local\Temp\ccEOt3tG.s 			page 12


 465              	.L33:
 466 008c 00000000 		.word	.LANCHOR0
 467 0090 00000000 		.word	code_buffer
 468 0094 00000000 		.word	.LANCHOR1
 469 0098 00000000 		.word	.LC0
 470              		.cfi_endproc
 471              	.LFE68:
 472              		.size	try_to_read_code_from_keyboard, .-try_to_read_code_from_keyboard
 473              		.section	.text.print_time_to_lcd,"ax",%progbits
 474              		.align	2
 475              		.global	print_time_to_lcd
 476              		.thumb
 477              		.thumb_func
 478              		.type	print_time_to_lcd, %function
 479              	print_time_to_lcd:
 480              	.LFB69:
 151:main.c        **** 
 152:main.c        **** 
 153:main.c        **** void print_time_to_lcd() {
 481              		.loc 1 153 0
 482              		.cfi_startproc
 483              		@ args = 0, pretend = 0, frame = 16
 484              		@ frame_needed = 0, uses_anonymous_args = 0
 485 0000 00B5     		push	{lr}
 486              		.cfi_def_cfa_offset 4
 487              		.cfi_offset 14, -4
 488 0002 85B0     		sub	sp, sp, #20
 489              		.cfi_def_cfa_offset 24
 154:main.c        ****     char str[16];
 155:main.c        ****     print_time_string(str);
 490              		.loc 1 155 0
 491 0004 6846     		mov	r0, sp
 492 0006 FFF7FEFF 		bl	print_time_string
 493              	.LVL60:
 156:main.c        ****     LCD_ClearDisplay();
 494              		.loc 1 156 0
 495 000a 0120     		movs	r0, #1
 496 000c FFF7FEFF 		bl	LCD_WriteControl
 497              	.LVL61:
 157:main.c        ****     LCD_Position(0u, 0u);
 498              		.loc 1 157 0
 499 0010 0021     		movs	r1, #0
 500 0012 0846     		mov	r0, r1
 501 0014 FFF7FEFF 		bl	LCD_Position
 502              	.LVL62:
 158:main.c        ****     LCD_PrintString(str);
 503              		.loc 1 158 0
 504 0018 6846     		mov	r0, sp
 505 001a FFF7FEFF 		bl	LCD_PrintString
 506              	.LVL63:
 159:main.c        **** }
 507              		.loc 1 159 0
 508 001e 05B0     		add	sp, sp, #20
 509              		.cfi_def_cfa_offset 4
 510              		@ sp needed
 511 0020 5DF804FB 		ldr	pc, [sp], #4
 512              		.cfi_endproc
ARM GAS  C:\Users\David\AppData\Local\Temp\ccEOt3tG.s 			page 13


 513              	.LFE69:
 514              		.size	print_time_to_lcd, .-print_time_to_lcd
 515              		.section	.text.tone,"ax",%progbits
 516              		.align	2
 517              		.global	tone
 518              		.thumb
 519              		.thumb_func
 520              		.type	tone, %function
 521              	tone:
 522              	.LFB70:
 160:main.c        **** 
 161:main.c        **** void tone(uint16 freq, uint16 duration) {
 523              		.loc 1 161 0
 524              		.cfi_startproc
 525              		@ args = 0, pretend = 0, frame = 0
 526              		@ frame_needed = 0, uses_anonymous_args = 0
 527              	.LVL64:
 528 0000 38B5     		push	{r3, r4, r5, lr}
 529              		.cfi_def_cfa_offset 16
 530              		.cfi_offset 3, -16
 531              		.cfi_offset 4, -12
 532              		.cfi_offset 5, -8
 533              		.cfi_offset 14, -4
 534 0002 0D46     		mov	r5, r1
 162:main.c        ****       pushTask(&tone_fifo, create_new_onetimetask(start_tone, 0, freq));
 535              		.loc 1 162 0
 536 0004 0246     		mov	r2, r0
 537 0006 0021     		movs	r1, #0
 538              	.LVL65:
 539 0008 0848     		ldr	r0, .L39
 540              	.LVL66:
 541 000a FFF7FEFF 		bl	create_new_onetimetask
 542              	.LVL67:
 543 000e 084C     		ldr	r4, .L39+4
 544 0010 0146     		mov	r1, r0
 545 0012 2046     		mov	r0, r4
 546 0014 FFF7FEFF 		bl	pushTask
 547              	.LVL68:
 163:main.c        ****       pushTask(&tone_fifo, create_new_noparam_onetimetask(noTone, duration));
 548              		.loc 1 163 0
 549 0018 2946     		mov	r1, r5
 550 001a 0648     		ldr	r0, .L39+8
 551 001c FFF7FEFF 		bl	create_new_noparam_onetimetask
 552              	.LVL69:
 553 0020 0146     		mov	r1, r0
 554 0022 2046     		mov	r0, r4
 555 0024 FFF7FEFF 		bl	pushTask
 556              	.LVL70:
 557 0028 38BD     		pop	{r3, r4, r5, pc}
 558              	.L40:
 559 002a 00BF     		.align	2
 560              	.L39:
 561 002c 00000000 		.word	start_tone
 562 0030 00000000 		.word	tone_fifo
 563 0034 00000000 		.word	noTone
 564              		.cfi_endproc
 565              	.LFE70:
ARM GAS  C:\Users\David\AppData\Local\Temp\ccEOt3tG.s 			page 14


 566              		.size	tone, .-tone
 567              		.section	.text.play_alert,"ax",%progbits
 568              		.align	2
 569              		.global	play_alert
 570              		.thumb
 571              		.thumb_func
 572              		.type	play_alert, %function
 573              	play_alert:
 574              	.LFB71:
 164:main.c        **** }
 165:main.c        **** 
 166:main.c        **** void play_alert() {
 575              		.loc 1 166 0
 576              		.cfi_startproc
 577              		@ args = 0, pretend = 0, frame = 0
 578              		@ frame_needed = 0, uses_anonymous_args = 0
 579 0000 08B5     		push	{r3, lr}
 580              		.cfi_def_cfa_offset 8
 581              		.cfi_offset 3, -8
 582              		.cfi_offset 14, -4
 167:main.c        ****     tone(400, 300);
 583              		.loc 1 167 0
 584 0002 4FF49671 		mov	r1, #300
 585 0006 4FF4C870 		mov	r0, #400
 586 000a FFF7FEFF 		bl	tone
 587              	.LVL71:
 168:main.c        ****      tone(500, 300);
 588              		.loc 1 168 0
 589 000e 4FF49671 		mov	r1, #300
 590 0012 4FF4FA70 		mov	r0, #500
 591 0016 FFF7FEFF 		bl	tone
 592              	.LVL72:
 169:main.c        ****      tone(600, 300);
 593              		.loc 1 169 0
 594 001a 4FF49671 		mov	r1, #300
 595 001e 4FF41670 		mov	r0, #600
 596 0022 FFF7FEFF 		bl	tone
 597              	.LVL73:
 170:main.c        ****      tone(700, 300);
 598              		.loc 1 170 0
 599 0026 4FF49671 		mov	r1, #300
 600 002a 4FF42F70 		mov	r0, #700
 601 002e FFF7FEFF 		bl	tone
 602              	.LVL74:
 603 0032 08BD     		pop	{r3, pc}
 604              		.cfi_endproc
 605              	.LFE71:
 606              		.size	play_alert, .-play_alert
 607              		.section	.text.main,"ax",%progbits
 608              		.align	2
 609              		.global	main
 610              		.thumb
 611              		.thumb_func
 612              		.type	main, %function
 613              	main:
 614              	.LFB72:
 171:main.c        **** }
ARM GAS  C:\Users\David\AppData\Local\Temp\ccEOt3tG.s 			page 15


 172:main.c        **** 
 173:main.c        **** 
 174:main.c        **** int main(void)
 175:main.c        **** {
 615              		.loc 1 175 0
 616              		.cfi_startproc
 617              		@ args = 0, pretend = 0, frame = 8
 618              		@ frame_needed = 0, uses_anonymous_args = 0
 619 0000 30B5     		push	{r4, r5, lr}
 620              		.cfi_def_cfa_offset 12
 621              		.cfi_offset 4, -12
 622              		.cfi_offset 5, -8
 623              		.cfi_offset 14, -4
 624 0002 83B0     		sub	sp, sp, #12
 625              		.cfi_def_cfa_offset 24
 176:main.c        ****     init();
 626              		.loc 1 176 0
 627 0004 FFF7FEFF 		bl	init
 628              	.LVL75:
 177:main.c        ****   
 178:main.c        ****     
 179:main.c        ****     tone_fifo.start = NULL;
 629              		.loc 1 179 0
 630 0008 244B     		ldr	r3, .L48
 631 000a 0024     		movs	r4, #0
 632 000c 1C60     		str	r4, [r3]
 180:main.c        ****     tone_fifo.end = NULL;
 633              		.loc 1 180 0
 634 000e 5C60     		str	r4, [r3, #4]
 181:main.c        ****     
 182:main.c        ****     gsm_fifo.start = NULL;
 635              		.loc 1 182 0
 636 0010 234B     		ldr	r3, .L48+4
 637 0012 1C60     		str	r4, [r3]
 183:main.c        ****     gsm_fifo.end = NULL;
 638              		.loc 1 183 0
 639 0014 5C60     		str	r4, [r3, #4]
 184:main.c        ****     
 185:main.c        ****     p_tasks.start = NULL;
 640              		.loc 1 185 0
 641 0016 234D     		ldr	r5, .L48+8
 642 0018 2C60     		str	r4, [r5]
 186:main.c        ****     p_tasks.end = NULL;
 643              		.loc 1 186 0
 644 001a 6C60     		str	r4, [r5, #4]
 187:main.c        ****     
 188:main.c        ****     CyGlobalIntEnable; /* Enable global interrupts. */
 645              		.loc 1 188 0
 646              		.syntax unified
 647              	@ 188 "main.c" 1
 648 001c 62B6     		CPSIE   i
 649              	@ 0 "" 2
 189:main.c        ****     
 190:main.c        ****     uint8 is_light_alert = 0u;
 650              		.loc 1 190 0
 651              		.thumb
 652              		.syntax unified
ARM GAS  C:\Users\David\AppData\Local\Temp\ccEOt3tG.s 			page 16


 653 001e 8DF80740 		strb	r4, [sp, #7]
 191:main.c        ****     uint8 is_movement_alert = 0u;
 654              		.loc 1 191 0
 655 0022 8DF80640 		strb	r4, [sp, #6]
 192:main.c        ****     
 193:main.c        ****     add_to_ptask_list(&p_tasks, create_new_ptask_noparam(readKey, 30, 1));
 656              		.loc 1 193 0
 657 0026 0122     		movs	r2, #1
 658 0028 1E21     		movs	r1, #30
 659 002a 1F48     		ldr	r0, .L48+12
 660 002c FFF7FEFF 		bl	create_new_ptask_noparam
 661              	.LVL76:
 662 0030 0146     		mov	r1, r0
 663 0032 2846     		mov	r0, r5
 664 0034 FFF7FEFF 		bl	add_to_ptask_list
 665              	.LVL77:
 194:main.c        ****     add_to_ptask_list(&p_tasks, create_new_ptask_parametered(check_photoresistor, &is_light_alert, 
 666              		.loc 1 194 0
 667 0038 0223     		movs	r3, #2
 668 003a C822     		movs	r2, #200
 669 003c 0DF10701 		add	r1, sp, #7
 670 0040 1A48     		ldr	r0, .L48+16
 671 0042 FFF7FEFF 		bl	create_new_ptask_parametered
 672              	.LVL78:
 673 0046 0146     		mov	r1, r0
 674 0048 2846     		mov	r0, r5
 675 004a FFF7FEFF 		bl	add_to_ptask_list
 676              	.LVL79:
 195:main.c        ****     add_to_ptask_list(&p_tasks, create_new_ptask_parametered(check_movement, &is_movement_alert, 10
 677              		.loc 1 195 0
 678 004e 0323     		movs	r3, #3
 679 0050 6422     		movs	r2, #100
 680 0052 0DF10601 		add	r1, sp, #6
 681 0056 1648     		ldr	r0, .L48+20
 682 0058 FFF7FEFF 		bl	create_new_ptask_parametered
 683              	.LVL80:
 684 005c 0146     		mov	r1, r0
 685 005e 2846     		mov	r0, r5
 686 0060 FFF7FEFF 		bl	add_to_ptask_list
 687              	.LVL81:
 196:main.c        ****   //  add_to_ptask_list(&p_tasks, create_new_ptask_noparam(print_time_to_lcd, 1000, 4));
 197:main.c        ****     volatile uint8 pressed = 0;
 688              		.loc 1 197 0
 689 0064 8DF80540 		strb	r4, [sp, #5]
 690              	.L45:
 198:main.c        ****     
 199:main.c        ****     
 200:main.c        ****     
 201:main.c        ****     
 202:main.c        ****     for(;;)
 203:main.c        ****     {   
 204:main.c        ****         
 205:main.c        ****         pressed = get_pressed_key();
 691              		.loc 1 205 0
 692 0068 FFF7FEFF 		bl	get_pressed_key
 693              	.LVL82:
 694 006c 8DF80500 		strb	r0, [sp, #5]
ARM GAS  C:\Users\David\AppData\Local\Temp\ccEOt3tG.s 			page 17


 206:main.c        ****     
 207:main.c        ****    
 208:main.c        ****         if (pressed != 0) {
 695              		.loc 1 208 0
 696 0070 9DF80530 		ldrb	r3, [sp, #5]	@ zero_extendqisi2
 697 0074 13F0FF0F 		tst	r3, #255
 698 0078 06D0     		beq	.L44
 209:main.c        ****          
 210:main.c        ****             start_sms_sending_sequence(&gsm_fifo, "parameter", "+36702668307");
 699              		.loc 1 210 0
 700 007a 0E4A     		ldr	r2, .L48+24
 701 007c 0E49     		ldr	r1, .L48+28
 702 007e 0848     		ldr	r0, .L48+4
 703 0080 FFF7FEFF 		bl	start_sms_sending_sequence
 704              	.LVL83:
 211:main.c        ****             
 212:main.c        ****             play_alert();
 705              		.loc 1 212 0
 706 0084 FFF7FEFF 		bl	play_alert
 707              	.LVL84:
 708              	.L44:
 213:main.c        ****         }
 214:main.c        ****         
 215:main.c        ****         if (UART_GSM_GetRxBufferSize()) {
 709              		.loc 1 215 0
 710 0088 FFF7FEFF 		bl	UART_GSM_GetRxBufferSize
 711              	.LVL85:
 712 008c 0028     		cmp	r0, #0
 713 008e EBD0     		beq	.L45
 216:main.c        ****             UART_PutChar(UART_GSM_GetChar());
 714              		.loc 1 216 0
 715 0090 FFF7FEFF 		bl	UART_GSM_GetChar
 716              	.LVL86:
 717 0094 FFF7FEFF 		bl	UART_PutChar
 718              	.LVL87:
 719 0098 E6E7     		b	.L45
 720              	.L49:
 721 009a 00BF     		.align	2
 722              	.L48:
 723 009c 00000000 		.word	tone_fifo
 724 00a0 00000000 		.word	gsm_fifo
 725 00a4 00000000 		.word	p_tasks
 726 00a8 00000000 		.word	readKey
 727 00ac 00000000 		.word	check_photoresistor
 728 00b0 00000000 		.word	check_movement
 729 00b4 0C000000 		.word	.LC1
 730 00b8 1C000000 		.word	.LC2
 731              		.cfi_endproc
 732              	.LFE72:
 733              		.size	main, .-main
 734              		.global	code_buffer_ind
 735              		.comm	code_buffer,4,4
 736              		.comm	gsm_fifo,8,4
 737              		.comm	tone_fifo,8,4
 738              		.comm	p_tasks,8,4
 739              		.comm	alart_reason,16,4
 740              		.global	actual_substate
ARM GAS  C:\Users\David\AppData\Local\Temp\ccEOt3tG.s 			page 18


 741              		.global	actual_state
 742              		.global	NIGHT_TO
 743              		.global	NIGHT_FROM
 744              		.global	CODE
 745              		.data
 746              		.align	2
 747              		.set	.LANCHOR1,. + 0
 748              		.type	NIGHT_TO, %object
 749              		.size	NIGHT_TO, 1
 750              	NIGHT_TO:
 751 0000 18       		.byte	24
 752 0001 000000   		.space	3
 753              		.type	CODE, %object
 754              		.size	CODE, 4
 755              	CODE:
 756 0004 28000000 		.word	.LC3
 757              		.type	actual_substate, %object
 758              		.size	actual_substate, 1
 759              	actual_substate:
 760 0008 03       		.byte	3
 761              		.type	actual_state, %object
 762              		.size	actual_state, 1
 763              	actual_state:
 764 0009 01       		.byte	1
 765              		.section	.rodata.str1.4,"aMS",%progbits,1
 766              		.align	2
 767              	.LC0:
 768 0000 48696261 		.ascii	"Hibas kod!\000"
 768      73206B6F 
 768      642100
 769 000b 00       		.space	1
 770              	.LC1:
 771 000c 2B333637 		.ascii	"+36702668307\000"
 771      30323636 
 771      38333037 
 771      00
 772 0019 000000   		.space	3
 773              	.LC2:
 774 001c 70617261 		.ascii	"parameter\000"
 774      6D657465 
 774      7200
 775 0026 0000     		.space	2
 776              	.LC3:
 777 0028 34333231 		.ascii	"4321\000"
 777      00
 778              		.bss
 779              		.set	.LANCHOR0,. + 0
 780              		.type	NIGHT_FROM, %object
 781              		.size	NIGHT_FROM, 1
 782              	NIGHT_FROM:
 783 0000 00       		.space	1
 784              		.type	code_buffer_ind, %object
 785              		.size	code_buffer_ind, 1
 786              	code_buffer_ind:
 787 0001 00       		.space	1
 788              		.text
 789              	.Letext0:
ARM GAS  C:\Users\David\AppData\Local\Temp\ccEOt3tG.s 			page 19


 790              		.file 2 "c:\\program files (x86)\\cypress\\psoc creator\\4.4\\psoc creator\\import\\gnu\\arm\\5.4.
 791              		.file 3 "c:\\program files (x86)\\cypress\\psoc creator\\4.4\\psoc creator\\import\\gnu\\arm\\5.4.
 792              		.file 4 "Generated_Source\\PSoC5/cytypes.h"
 793              		.file 5 "PeriodicTask.h"
 794              		.file 6 "TaskFIFO.h"
 795              		.file 7 "Generated_Source\\PSoC5/core_cm3.h"
 796              		.file 8 "Generated_Source\\PSoC5/PWM_BEEPER.h"
 797              		.file 9 "Generated_Source\\PSoC5/Timer.h"
 798              		.file 10 "Generated_Source\\PSoC5/PWM_BACKLIGHT.h"
 799              		.file 11 "Generated_Source\\PSoC5/ADC_SAR_PR.h"
 800              		.file 12 "ds1302.h"
 801              		.file 13 "Generated_Source\\PSoC5/isr_Timer.h"
 802              		.file 14 "Generated_Source\\PSoC5/ADC_SAR_RADAR_IRQ.h"
 803              		.file 15 "Generated_Source\\PSoC5/ADC_SAR_RADAR.h"
 804              		.file 16 "Generated_Source\\PSoC5/LCD.h"
 805              		.file 17 "Generated_Source\\PSoC5/SPIM.h"
 806              		.file 18 "Generated_Source\\PSoC5/UART.h"
 807              		.file 19 "Generated_Source\\PSoC5/UART_GSM.h"
 808              		.file 20 "Generated_Source\\PSoC5/VDAC8.h"
 809              		.file 21 "Generated_Source\\PSoC5/EEPROM.h"
 810              		.file 22 "Keypad.h"
 811              		.file 23 "GSMHandler.h"