ARM GAS  C:\Users\David\AppData\Local\Temp\ccBpYD0O.s 			page 1


   1              		.syntax unified
   2              		.cpu cortex-m3
   3              		.fpu softvfp
   4              		.eabi_attribute 20, 1
   5              		.eabi_attribute 21, 1
   6              		.eabi_attribute 23, 3
   7              		.eabi_attribute 24, 1
   8              		.eabi_attribute 25, 1
   9              		.eabi_attribute 26, 1
  10              		.eabi_attribute 30, 1
  11              		.eabi_attribute 34, 1
  12              		.eabi_attribute 18, 4
  13              		.thumb
  14              		.syntax unified
  15              		.file	"PeriodicTask.c"
  16              		.text
  17              	.Ltext0:
  18              		.cfi_sections	.debug_frame
  19              		.section	.text.create_new_ptask_parametered,"ax",%progbits
  20              		.align	2
  21              		.global	create_new_ptask_parametered
  22              		.thumb
  23              		.thumb_func
  24              		.type	create_new_ptask_parametered, %function
  25              	create_new_ptask_parametered:
  26              	.LFB63:
  27              		.file 1 "PeriodicTask.c"
   1:PeriodicTask.c **** /* ========================================
   2:PeriodicTask.c ****  *
   3:PeriodicTask.c ****  * Periodikusan futo, engedelyezheto taszkokat kezelo lancolt listat valositok meg.
   4:PeriodicTask.c ****  * Ezeken fogik mindig vegiegiteralni a timer IT-ben.
   5:PeriodicTask.c ****  *
   6:PeriodicTask.c ****  * ========================================
   7:PeriodicTask.c **** */
   8:PeriodicTask.c **** 
   9:PeriodicTask.c **** #include "project.h"
  10:PeriodicTask.c **** 
  11:PeriodicTask.c **** 
  12:PeriodicTask.c **** //Periodikusan lefuto folyamat.
  13:PeriodicTask.c **** typedef struct periodic_task {
  14:PeriodicTask.c ****    void (*paramtask)(uint8*); //Lehet olyan, aminek egy flag parametere van
  15:PeriodicTask.c ****    void (*noparamtask)(); //Lehet olyan, aminek nincs parametere.
  16:PeriodicTask.c ****    uint16 period; //Ennyi idonkent fut le
  17:PeriodicTask.c ****    uint16 counter; //Ezt csokkenti minden iteracioban
  18:PeriodicTask.c ****    uint8 enabled; 
  19:PeriodicTask.c ****    uint8 pid; //azonosito
  20:PeriodicTask.c ****    uint8 * flag; //Ami a parameteres fuggvenynek a parametere lehet
  21:PeriodicTask.c ****    struct periodic_task * next; //lancolt lista kovetkezo elemet
  22:PeriodicTask.c **** } periodic_task;
  23:PeriodicTask.c **** 
  24:PeriodicTask.c **** 
  25:PeriodicTask.c **** typedef struct periodic_task_list {
  26:PeriodicTask.c ****     periodic_task * start;
  27:PeriodicTask.c ****     periodic_task * end;
  28:PeriodicTask.c **** } periodic_task_list;
  29:PeriodicTask.c **** 
  30:PeriodicTask.c **** 
ARM GAS  C:\Users\David\AppData\Local\Temp\ccBpYD0O.s 			page 2


  31:PeriodicTask.c **** 
  32:PeriodicTask.c **** periodic_task * create_new_ptask_parametered( void (*paramtask)(uint8*), uint8 * flag, uint16 perio
  28              		.loc 1 32 0
  29              		.cfi_startproc
  30              		@ args = 0, pretend = 0, frame = 0
  31              		@ frame_needed = 0, uses_anonymous_args = 0
  32              	.LVL0:
  33 0000 F8B5     		push	{r3, r4, r5, r6, r7, lr}
  34              		.cfi_def_cfa_offset 24
  35              		.cfi_offset 3, -24
  36              		.cfi_offset 4, -20
  37              		.cfi_offset 5, -16
  38              		.cfi_offset 6, -12
  39              		.cfi_offset 7, -8
  40              		.cfi_offset 14, -4
  41 0002 0646     		mov	r6, r0
  42 0004 0D46     		mov	r5, r1
  43 0006 1746     		mov	r7, r2
  44 0008 1C46     		mov	r4, r3
  33:PeriodicTask.c ****     periodic_task * new_task;
  34:PeriodicTask.c ****     new_task = (periodic_task*)malloc(sizeof(periodic_task));
  45              		.loc 1 34 0
  46 000a 1820     		movs	r0, #24
  47              	.LVL1:
  48 000c FFF7FEFF 		bl	malloc
  49              	.LVL2:
  35:PeriodicTask.c ****     new_task->counter = 0;
  50              		.loc 1 35 0
  51 0010 0022     		movs	r2, #0
  52 0012 4281     		strh	r2, [r0, #10]	@ movhi
  36:PeriodicTask.c ****     new_task->period = period;
  53              		.loc 1 36 0
  54 0014 0781     		strh	r7, [r0, #8]	@ movhi
  37:PeriodicTask.c ****     new_task->paramtask = paramtask;
  55              		.loc 1 37 0
  56 0016 0660     		str	r6, [r0]
  38:PeriodicTask.c ****     new_task->noparamtask = NULL;
  57              		.loc 1 38 0
  58 0018 4260     		str	r2, [r0, #4]
  39:PeriodicTask.c ****     new_task->flag = flag;
  59              		.loc 1 39 0
  60 001a 0561     		str	r5, [r0, #16]
  40:PeriodicTask.c ****     new_task->pid = pid;
  61              		.loc 1 40 0
  62 001c 4473     		strb	r4, [r0, #13]
  41:PeriodicTask.c ****     new_task->enabled = 1u;
  63              		.loc 1 41 0
  64 001e 0121     		movs	r1, #1
  65 0020 0173     		strb	r1, [r0, #12]
  42:PeriodicTask.c ****     new_task->next = NULL;
  66              		.loc 1 42 0
  67 0022 4261     		str	r2, [r0, #20]
  43:PeriodicTask.c ****     return new_task;
  44:PeriodicTask.c **** }
  68              		.loc 1 44 0
  69 0024 F8BD     		pop	{r3, r4, r5, r6, r7, pc}
  70              		.cfi_endproc
ARM GAS  C:\Users\David\AppData\Local\Temp\ccBpYD0O.s 			page 3


  71              	.LFE63:
  72              		.size	create_new_ptask_parametered, .-create_new_ptask_parametered
  73 0026 00BF     		.section	.text.create_new_ptask_noparam,"ax",%progbits
  74              		.align	2
  75              		.global	create_new_ptask_noparam
  76              		.thumb
  77              		.thumb_func
  78              		.type	create_new_ptask_noparam, %function
  79              	create_new_ptask_noparam:
  80              	.LFB64:
  45:PeriodicTask.c **** 
  46:PeriodicTask.c **** periodic_task * create_new_ptask_noparam( void (*noparamfunc)(), uint16 period, uint8 pid) {
  81              		.loc 1 46 0
  82              		.cfi_startproc
  83              		@ args = 0, pretend = 0, frame = 0
  84              		@ frame_needed = 0, uses_anonymous_args = 0
  85              	.LVL3:
  86 0000 70B5     		push	{r4, r5, r6, lr}
  87              		.cfi_def_cfa_offset 16
  88              		.cfi_offset 4, -16
  89              		.cfi_offset 5, -12
  90              		.cfi_offset 6, -8
  91              		.cfi_offset 14, -4
  92 0002 0546     		mov	r5, r0
  93 0004 0E46     		mov	r6, r1
  94 0006 1446     		mov	r4, r2
  47:PeriodicTask.c ****     periodic_task * new_task;
  48:PeriodicTask.c ****     new_task = (periodic_task*)malloc(sizeof(periodic_task));
  95              		.loc 1 48 0
  96 0008 1820     		movs	r0, #24
  97              	.LVL4:
  98 000a FFF7FEFF 		bl	malloc
  99              	.LVL5:
  49:PeriodicTask.c ****     new_task->counter = 0;
 100              		.loc 1 49 0
 101 000e 0022     		movs	r2, #0
 102 0010 4281     		strh	r2, [r0, #10]	@ movhi
  50:PeriodicTask.c ****     new_task->period = period;
 103              		.loc 1 50 0
 104 0012 0681     		strh	r6, [r0, #8]	@ movhi
  51:PeriodicTask.c ****     new_task->noparamtask = noparamfunc;
 105              		.loc 1 51 0
 106 0014 4560     		str	r5, [r0, #4]
  52:PeriodicTask.c ****     new_task->paramtask = NULL;
 107              		.loc 1 52 0
 108 0016 0260     		str	r2, [r0]
  53:PeriodicTask.c ****     new_task->pid = pid;
 109              		.loc 1 53 0
 110 0018 4473     		strb	r4, [r0, #13]
  54:PeriodicTask.c ****     new_task->next = NULL;
 111              		.loc 1 54 0
 112 001a 4261     		str	r2, [r0, #20]
  55:PeriodicTask.c ****     new_task->enabled = 1u;
 113              		.loc 1 55 0
 114 001c 0122     		movs	r2, #1
 115 001e 0273     		strb	r2, [r0, #12]
  56:PeriodicTask.c ****     return new_task;
ARM GAS  C:\Users\David\AppData\Local\Temp\ccBpYD0O.s 			page 4


  57:PeriodicTask.c **** }
 116              		.loc 1 57 0
 117 0020 70BD     		pop	{r4, r5, r6, pc}
 118              		.cfi_endproc
 119              	.LFE64:
 120              		.size	create_new_ptask_noparam, .-create_new_ptask_noparam
 121 0022 00BF     		.section	.text.add_to_ptask_list,"ax",%progbits
 122              		.align	2
 123              		.global	add_to_ptask_list
 124              		.thumb
 125              		.thumb_func
 126              		.type	add_to_ptask_list, %function
 127              	add_to_ptask_list:
 128              	.LFB65:
  58:PeriodicTask.c **** 
  59:PeriodicTask.c **** void add_to_ptask_list(periodic_task_list *list, periodic_task * task) {
 129              		.loc 1 59 0
 130              		.cfi_startproc
 131              		@ args = 0, pretend = 0, frame = 0
 132              		@ frame_needed = 0, uses_anonymous_args = 0
 133              		@ link register save eliminated.
 134              	.LVL6:
  60:PeriodicTask.c ****     if (list->start == NULL) {
 135              		.loc 1 60 0
 136 0000 0368     		ldr	r3, [r0]
 137 0002 13B9     		cbnz	r3, .L6
  61:PeriodicTask.c ****         list->start = task;
 138              		.loc 1 61 0
 139 0004 0160     		str	r1, [r0]
  62:PeriodicTask.c ****         list->end = task;
 140              		.loc 1 62 0
 141 0006 4160     		str	r1, [r0, #4]
  63:PeriodicTask.c ****         return;
 142              		.loc 1 63 0
 143 0008 7047     		bx	lr
 144              	.L6:
  64:PeriodicTask.c ****     }
  65:PeriodicTask.c ****     
  66:PeriodicTask.c ****     list->end->next = task;
 145              		.loc 1 66 0
 146 000a 4368     		ldr	r3, [r0, #4]
 147 000c 5961     		str	r1, [r3, #20]
  67:PeriodicTask.c ****     list->end = task;
 148              		.loc 1 67 0
 149 000e 4160     		str	r1, [r0, #4]
 150 0010 7047     		bx	lr
 151              		.cfi_endproc
 152              	.LFE65:
 153              		.size	add_to_ptask_list, .-add_to_ptask_list
 154 0012 00BF     		.section	.text.find_task,"ax",%progbits
 155              		.align	2
 156              		.global	find_task
 157              		.thumb
 158              		.thumb_func
 159              		.type	find_task, %function
 160              	find_task:
 161              	.LFB66:
ARM GAS  C:\Users\David\AppData\Local\Temp\ccBpYD0O.s 			page 5


  68:PeriodicTask.c **** }
  69:PeriodicTask.c **** 
  70:PeriodicTask.c **** periodic_task * find_task(periodic_task_list * tasks, uint8 pid) {
 162              		.loc 1 70 0
 163              		.cfi_startproc
 164              		@ args = 0, pretend = 0, frame = 0
 165              		@ frame_needed = 0, uses_anonymous_args = 0
 166              		@ link register save eliminated.
 167              	.LVL7:
  71:PeriodicTask.c ****     periodic_task *iter;
  72:PeriodicTask.c ****  
  73:PeriodicTask.c ****     for (iter = tasks->start; iter != NULL; iter = iter->next) {
 168              		.loc 1 73 0
 169 0000 0068     		ldr	r0, [r0]
 170              	.LVL8:
 171 0002 03E0     		b	.L9
 172              	.L11:
  74:PeriodicTask.c ****         if (iter->pid == pid)
 173              		.loc 1 74 0
 174 0004 437B     		ldrb	r3, [r0, #13]	@ zero_extendqisi2
 175 0006 8B42     		cmp	r3, r1
 176 0008 02D0     		beq	.L10
  73:PeriodicTask.c ****         if (iter->pid == pid)
 177              		.loc 1 73 0 discriminator 2
 178 000a 4069     		ldr	r0, [r0, #20]
 179              	.LVL9:
 180              	.L9:
  73:PeriodicTask.c ****         if (iter->pid == pid)
 181              		.loc 1 73 0 is_stmt 0 discriminator 1
 182 000c 0028     		cmp	r0, #0
 183 000e F9D1     		bne	.L11
 184              	.L10:
  75:PeriodicTask.c ****             return iter;
  76:PeriodicTask.c ****     }
  77:PeriodicTask.c ****     return NULL;
  78:PeriodicTask.c **** }
 185              		.loc 1 78 0 is_stmt 1
 186 0010 7047     		bx	lr
 187              		.cfi_endproc
 188              	.LFE66:
 189              		.size	find_task, .-find_task
 190 0012 00BF     		.section	.text.enable_task,"ax",%progbits
 191              		.align	2
 192              		.global	enable_task
 193              		.thumb
 194              		.thumb_func
 195              		.type	enable_task, %function
 196              	enable_task:
 197              	.LFB67:
  79:PeriodicTask.c **** 
  80:PeriodicTask.c **** void enable_task(periodic_task_list * tasks, uint8 pid) {
 198              		.loc 1 80 0
 199              		.cfi_startproc
 200              		@ args = 0, pretend = 0, frame = 0
 201              		@ frame_needed = 0, uses_anonymous_args = 0
 202              	.LVL10:
 203 0000 08B5     		push	{r3, lr}
ARM GAS  C:\Users\David\AppData\Local\Temp\ccBpYD0O.s 			page 6


 204              		.cfi_def_cfa_offset 8
 205              		.cfi_offset 3, -8
 206              		.cfi_offset 14, -4
  81:PeriodicTask.c ****    periodic_task * task = find_task(tasks, pid);
 207              		.loc 1 81 0
 208 0002 FFF7FEFF 		bl	find_task
 209              	.LVL11:
  82:PeriodicTask.c ****     if (task != NULL)
 210              		.loc 1 82 0
 211 0006 08B1     		cbz	r0, .L13
  83:PeriodicTask.c ****         task->enabled = 1u;
 212              		.loc 1 83 0
 213 0008 0122     		movs	r2, #1
 214 000a 0273     		strb	r2, [r0, #12]
 215              	.L13:
 216 000c 08BD     		pop	{r3, pc}
 217              		.cfi_endproc
 218              	.LFE67:
 219              		.size	enable_task, .-enable_task
 220 000e 00BF     		.section	.text.disable_task,"ax",%progbits
 221              		.align	2
 222              		.global	disable_task
 223              		.thumb
 224              		.thumb_func
 225              		.type	disable_task, %function
 226              	disable_task:
 227              	.LFB68:
  84:PeriodicTask.c **** }
  85:PeriodicTask.c **** 
  86:PeriodicTask.c **** void disable_task(periodic_task_list * tasks, uint8 pid) {
 228              		.loc 1 86 0
 229              		.cfi_startproc
 230              		@ args = 0, pretend = 0, frame = 0
 231              		@ frame_needed = 0, uses_anonymous_args = 0
 232              	.LVL12:
 233 0000 08B5     		push	{r3, lr}
 234              		.cfi_def_cfa_offset 8
 235              		.cfi_offset 3, -8
 236              		.cfi_offset 14, -4
  87:PeriodicTask.c ****    periodic_task * task = find_task(tasks, pid);
 237              		.loc 1 87 0
 238 0002 FFF7FEFF 		bl	find_task
 239              	.LVL13:
  88:PeriodicTask.c ****     if (task != NULL) {
 240              		.loc 1 88 0
 241 0006 18B1     		cbz	r0, .L16
  89:PeriodicTask.c ****         task->enabled = 0u;
 242              		.loc 1 89 0
 243 0008 0022     		movs	r2, #0
 244 000a 0273     		strb	r2, [r0, #12]
  90:PeriodicTask.c ****         task->counter = task->period;
 245              		.loc 1 90 0
 246 000c 0289     		ldrh	r2, [r0, #8]
 247 000e 4281     		strh	r2, [r0, #10]	@ movhi
 248              	.L16:
 249 0010 08BD     		pop	{r3, pc}
 250              		.cfi_endproc
ARM GAS  C:\Users\David\AppData\Local\Temp\ccBpYD0O.s 			page 7


 251              	.LFE68:
 252              		.size	disable_task, .-disable_task
 253 0012 00BF     		.section	.text.free_list,"ax",%progbits
 254              		.align	2
 255              		.global	free_list
 256              		.thumb
 257              		.thumb_func
 258              		.type	free_list, %function
 259              	free_list:
 260              	.LFB69:
  91:PeriodicTask.c ****     }
  92:PeriodicTask.c ****         
  93:PeriodicTask.c **** }
  94:PeriodicTask.c **** 
  95:PeriodicTask.c **** void free_list(periodic_task_list * list) {
 261              		.loc 1 95 0
 262              		.cfi_startproc
 263              		@ args = 0, pretend = 0, frame = 0
 264              		@ frame_needed = 0, uses_anonymous_args = 0
 265              	.LVL14:
 266 0000 10B5     		push	{r4, lr}
 267              		.cfi_def_cfa_offset 8
 268              		.cfi_offset 4, -8
 269              		.cfi_offset 14, -4
  96:PeriodicTask.c ****     periodic_task * iter = list->start;
 270              		.loc 1 96 0
 271 0002 0068     		ldr	r0, [r0]
 272              	.LVL15:
  97:PeriodicTask.c ****     while (iter != NULL) {
 273              		.loc 1 97 0
 274 0004 03E0     		b	.L20
 275              	.L21:
 276              	.LBB2:
  98:PeriodicTask.c ****         periodic_task *nex = iter->next;
 277              		.loc 1 98 0
 278 0006 4469     		ldr	r4, [r0, #20]
 279              	.LVL16:
  99:PeriodicTask.c ****         free(iter);
 280              		.loc 1 99 0
 281 0008 FFF7FEFF 		bl	free
 282              	.LVL17:
 100:PeriodicTask.c ****         iter = nex;
 283              		.loc 1 100 0
 284 000c 2046     		mov	r0, r4
 285              	.LVL18:
 286              	.L20:
 287              	.LBE2:
  97:PeriodicTask.c ****         periodic_task *nex = iter->next;
 288              		.loc 1 97 0
 289 000e 0028     		cmp	r0, #0
 290 0010 F9D1     		bne	.L21
 101:PeriodicTask.c ****     }
 102:PeriodicTask.c **** }
 291              		.loc 1 102 0
 292 0012 10BD     		pop	{r4, pc}
 293              		.cfi_endproc
 294              	.LFE69:
ARM GAS  C:\Users\David\AppData\Local\Temp\ccBpYD0O.s 			page 8


 295              		.size	free_list, .-free_list
 296              		.section	.text.run_permitted_tasks_and_decrement_counters,"ax",%progbits
 297              		.align	2
 298              		.global	run_permitted_tasks_and_decrement_counters
 299              		.thumb
 300              		.thumb_func
 301              		.type	run_permitted_tasks_and_decrement_counters, %function
 302              	run_permitted_tasks_and_decrement_counters:
 303              	.LFB70:
 103:PeriodicTask.c **** 
 104:PeriodicTask.c **** void run_permitted_tasks_and_decrement_counters(periodic_task_list *list) {
 304              		.loc 1 104 0
 305              		.cfi_startproc
 306              		@ args = 0, pretend = 0, frame = 0
 307              		@ frame_needed = 0, uses_anonymous_args = 0
 308              	.LVL19:
 309 0000 10B5     		push	{r4, lr}
 310              		.cfi_def_cfa_offset 8
 311              		.cfi_offset 4, -8
 312              		.cfi_offset 14, -4
 105:PeriodicTask.c **** 
 106:PeriodicTask.c ****     periodic_task *iter;
 107:PeriodicTask.c ****     for (iter = list->start; iter != NULL; iter = iter->next) {
 313              		.loc 1 107 0
 314 0002 0468     		ldr	r4, [r0]
 315              	.LVL20:
 316 0004 11E0     		b	.L24
 317              	.LVL21:
 318              	.L28:
 108:PeriodicTask.c ****         if (iter->enabled == 1u) {
 319              		.loc 1 108 0
 320 0006 237B     		ldrb	r3, [r4, #12]	@ zero_extendqisi2
 321 0008 012B     		cmp	r3, #1
 322 000a 0DD1     		bne	.L25
 109:PeriodicTask.c ****             if (iter->counter == 0) {
 323              		.loc 1 109 0
 324 000c 6389     		ldrh	r3, [r4, #10]
 325 000e 4BB9     		cbnz	r3, .L26
 110:PeriodicTask.c ****                 iter->counter = iter->period;
 326              		.loc 1 110 0
 327 0010 2389     		ldrh	r3, [r4, #8]
 328 0012 6381     		strh	r3, [r4, #10]	@ movhi
 111:PeriodicTask.c ****                 if (iter->noparamtask != NULL) {
 329              		.loc 1 111 0
 330 0014 6368     		ldr	r3, [r4, #4]
 331 0016 03B1     		cbz	r3, .L27
 112:PeriodicTask.c ****                     iter->noparamtask();
 332              		.loc 1 112 0
 333 0018 9847     		blx	r3
 334              	.LVL22:
 335              	.L27:
 113:PeriodicTask.c ****                 }
 114:PeriodicTask.c ****                 if (iter->paramtask != NULL) {
 336              		.loc 1 114 0
 337 001a 2368     		ldr	r3, [r4]
 338 001c 23B1     		cbz	r3, .L25
 115:PeriodicTask.c ****                     iter->paramtask(iter->flag);
ARM GAS  C:\Users\David\AppData\Local\Temp\ccBpYD0O.s 			page 9


 339              		.loc 1 115 0
 340 001e 2069     		ldr	r0, [r4, #16]
 341 0020 9847     		blx	r3
 342              	.LVL23:
 343 0022 01E0     		b	.L25
 344              	.L26:
 116:PeriodicTask.c ****                 }
 117:PeriodicTask.c ****             }
 118:PeriodicTask.c ****             else {
 119:PeriodicTask.c ****                 iter->counter--;
 345              		.loc 1 119 0
 346 0024 013B     		subs	r3, r3, #1
 347 0026 6381     		strh	r3, [r4, #10]	@ movhi
 348              	.L25:
 107:PeriodicTask.c ****         if (iter->enabled == 1u) {
 349              		.loc 1 107 0 discriminator 2
 350 0028 6469     		ldr	r4, [r4, #20]
 351              	.LVL24:
 352              	.L24:
 107:PeriodicTask.c ****         if (iter->enabled == 1u) {
 353              		.loc 1 107 0 is_stmt 0 discriminator 1
 354 002a 002C     		cmp	r4, #0
 355 002c EBD1     		bne	.L28
 120:PeriodicTask.c ****             }
 121:PeriodicTask.c ****         }
 122:PeriodicTask.c ****     }   
 123:PeriodicTask.c **** }
 356              		.loc 1 123 0 is_stmt 1
 357 002e 10BD     		pop	{r4, pc}
 358              		.cfi_endproc
 359              	.LFE70:
 360              		.size	run_permitted_tasks_and_decrement_counters, .-run_permitted_tasks_and_decrement_counters
 361              		.text
 362              	.Letext0:
 363              		.file 2 "c:\\program files (x86)\\cypress\\psoc creator\\4.4\\psoc creator\\import\\gnu\\arm\\5.4.
 364              		.file 3 "c:\\program files (x86)\\cypress\\psoc creator\\4.4\\psoc creator\\import\\gnu\\arm\\5.4.
 365              		.file 4 "Generated_Source\\PSoC5/cytypes.h"
 366              		.file 5 "<built-in>"
 367              		.file 6 "Generated_Source\\PSoC5/core_cm3.h"