ARM GAS  C:\Users\David\AppData\Local\Temp\ccJPkTSt.s 			page 1


   1              		.syntax unified
   2              		.cpu cortex-m3
   3              		.fpu softvfp
   4              		.eabi_attribute 20, 1
   5              		.eabi_attribute 21, 1
   6              		.eabi_attribute 23, 3
   7              		.eabi_attribute 24, 1
   8              		.eabi_attribute 25, 1
   9              		.eabi_attribute 26, 1
  10              		.eabi_attribute 30, 1
  11              		.eabi_attribute 34, 1
  12              		.eabi_attribute 18, 4
  13              		.thumb
  14              		.syntax unified
  15              		.file	"SettingsHelper.c"
  16              		.text
  17              	.Ltext0:
  18              		.cfi_sections	.debug_frame
  19              		.section	.text.toInt,"ax",%progbits
  20              		.align	2
  21              		.global	toInt
  22              		.thumb
  23              		.thumb_func
  24              		.type	toInt, %function
  25              	toInt:
  26              	.LFB63:
  27              		.file 1 "SettingsHelper.c"
   1:SettingsHelper.c **** /* ========================================
   2:SettingsHelper.c ****  *
   3:SettingsHelper.c ****  * Copyright YOUR COMPANY, THE YEAR
   4:SettingsHelper.c ****  * All Rights Reserved
   5:SettingsHelper.c ****  * UNPUBLISHED, LICENSED SOFTWARE.
   6:SettingsHelper.c ****  *
   7:SettingsHelper.c ****  * CONFIDENTIAL AND PROPRIETARY INFORMATION
   8:SettingsHelper.c ****  * WHICH IS THE PROPERTY OF your company.
   9:SettingsHelper.c ****  *
  10:SettingsHelper.c ****  * ========================================
  11:SettingsHelper.c **** */
  12:SettingsHelper.c **** 
  13:SettingsHelper.c **** #include "project.h"
  14:SettingsHelper.c **** #include "Keypad.h"
  15:SettingsHelper.c **** #include "SettingsHelper.h"
  16:SettingsHelper.c **** #include "EEPROM_Helper.h"
  17:SettingsHelper.c **** 
  18:SettingsHelper.c **** char variable_to_be_displayed[16];
  19:SettingsHelper.c **** 
  20:SettingsHelper.c **** menu_item menu_system[] = {
  21:SettingsHelper.c ****     {{"A:Param. B: Kod","C: Tel. *: Ki"}, handle_main_menu_page},
  22:SettingsHelper.c ****     {{"A:Elesitesi ido","1:<- 2:-> *: Ki"}, choose_param_page1},
  23:SettingsHelper.c ****     {{"A:Csipog. hossza","1:<- 2:-> *: Ki"}, choose_param_page2},
  24:SettingsHelper.c ****     {{"A:Auto. bekapcs.","1:<- 2:-> *: Ki"}, choose_param_page3},
  25:SettingsHelper.c ****     {{"A:Deakt. ido","1:<- 2:-> *: Ki"}, choose_param_page4},
  26:SettingsHelper.c ****     {{"A:Ejszaka kezd.","1:<- 2:-> *: Ki"}, choose_param_page5},
  27:SettingsHelper.c ****     {{"A:Ejszaka vege","1:<- 2:-> *: Ki"}, choose_param_page6},
  28:SettingsHelper.c ****     {{"A:Fenyerz. nezze","1:<- 2:-> *: Ki"}, choose_param_page7},
  29:SettingsHelper.c ****     {{variable_to_be_displayed,"Uj:"}, change_16_num}, //8
  30:SettingsHelper.c ****     {{variable_to_be_displayed,"Uj:"}, change_8_num}, //9
ARM GAS  C:\Users\David\AppData\Local\Temp\ccJPkTSt.s 			page 2


  31:SettingsHelper.c ****     {{variable_to_be_displayed,"1 : be, 0: ki"}, ask_bool}, //10
  32:SettingsHelper.c ****     {{"Kerem a kodot:",""}, vertify_code}, //11
  33:SettingsHelper.c ****     {{"Uj kodot: ",""}, select_new_code}, //12
  34:SettingsHelper.c ****     {{variable_to_be_displayed,"+36"}, edit_phone_number} //13
  35:SettingsHelper.c **** };
  36:SettingsHelper.c **** 
  37:SettingsHelper.c **** menu_item actual_menu_item;
  38:SettingsHelper.c **** 
  39:SettingsHelper.c **** uint8 actual_eeprom_addr = -1;
  40:SettingsHelper.c **** 
  41:SettingsHelper.c **** 
  42:SettingsHelper.c **** uint8 OUT_FROM_MENU = 0u;
  43:SettingsHelper.c **** 
  44:SettingsHelper.c **** //String to int.
  45:SettingsHelper.c **** uint16 toInt(char* str)
  46:SettingsHelper.c **** {
  28              		.loc 1 46 0
  29              		.cfi_startproc
  30              		@ args = 0, pretend = 0, frame = 0
  31              		@ frame_needed = 0, uses_anonymous_args = 0
  32              	.LVL0:
  33 0000 10B5     		push	{r4, lr}
  34              		.cfi_def_cfa_offset 8
  35              		.cfi_offset 4, -8
  36              		.cfi_offset 14, -4
  37 0002 0446     		mov	r4, r0
  38              	.LVL1:
  47:SettingsHelper.c ****     uint16 mult = 1;
  48:SettingsHelper.c ****     uint16 re = 0;
  49:SettingsHelper.c ****     int len = strlen(str);
  39              		.loc 1 49 0
  40 0004 FFF7FEFF 		bl	strlen
  41              	.LVL2:
  42              	.LBB2:
  50:SettingsHelper.c ****     for(int i = len -1 ; i >= 0 ; i--)
  43              		.loc 1 50 0
  44 0008 421E     		subs	r2, r0, #1
  45              	.LVL3:
  46              	.LBE2:
  48:SettingsHelper.c ****     int len = strlen(str);
  47              		.loc 1 48 0
  48 000a 0020     		movs	r0, #0
  49              	.LVL4:
  47:SettingsHelper.c ****     uint16 mult = 1;
  50              		.loc 1 47 0
  51 000c 0123     		movs	r3, #1
  52              	.LBB3:
  53              		.loc 1 50 0
  54 000e 09E0     		b	.L2
  55              	.LVL5:
  56              	.L3:
  51:SettingsHelper.c ****     {
  52:SettingsHelper.c ****         re = re + ((uint8)str[i] -48)*mult;
  57              		.loc 1 52 0 discriminator 3
  58 0010 A15C     		ldrb	r1, [r4, r2]	@ zero_extendqisi2
  59 0012 3039     		subs	r1, r1, #48
  60 0014 01FB0300 		mla	r0, r1, r3, r0
ARM GAS  C:\Users\David\AppData\Local\Temp\ccJPkTSt.s 			page 3


  61              	.LVL6:
  62 0018 80B2     		uxth	r0, r0
  63              	.LVL7:
  53:SettingsHelper.c ****         mult = mult*10;
  64              		.loc 1 53 0 discriminator 3
  65 001a 03EB8303 		add	r3, r3, r3, lsl #2
  66              	.LVL8:
  67 001e 5900     		lsls	r1, r3, #1
  68 0020 8BB2     		uxth	r3, r1
  69              	.LVL9:
  50:SettingsHelper.c ****     {
  70              		.loc 1 50 0 discriminator 3
  71 0022 013A     		subs	r2, r2, #1
  72              	.LVL10:
  73              	.L2:
  50:SettingsHelper.c ****     {
  74              		.loc 1 50 0 is_stmt 0 discriminator 1
  75 0024 002A     		cmp	r2, #0
  76 0026 F3DA     		bge	.L3
  77              	.LBE3:
  54:SettingsHelper.c ****     }
  55:SettingsHelper.c ****     return re;
  56:SettingsHelper.c **** }
  78              		.loc 1 56 0 is_stmt 1
  79 0028 10BD     		pop	{r4, pc}
  80              		.cfi_endproc
  81              	.LFE63:
  82              		.size	toInt, .-toInt
  83 002a 00BF     		.section	.text.printChar,"ax",%progbits
  84              		.align	2
  85              		.global	printChar
  86              		.thumb
  87              		.thumb_func
  88              		.type	printChar, %function
  89              	printChar:
  90              	.LFB64:
  57:SettingsHelper.c **** 
  58:SettingsHelper.c **** char num_buffer[6];
  59:SettingsHelper.c **** uint8 num_ind = 0;
  60:SettingsHelper.c **** 
  61:SettingsHelper.c **** char code_buffer[4];
  62:SettingsHelper.c **** uint8 code_buffer_ind = 0;
  63:SettingsHelper.c **** 
  64:SettingsHelper.c **** uint8 CODE[] = {'4','3','2','1'}; //Default valami. ugyis felul lesz irva.
  65:SettingsHelper.c **** 
  66:SettingsHelper.c **** char PHONE_NUM[] = "702668307";
  67:SettingsHelper.c **** 
  68:SettingsHelper.c **** //Ezek csak default ertekek. Ugyis felulirja az, ami az EEPROMBOL jon, az init_constans fgv-ben.
  69:SettingsHelper.c **** uint8 NIGHT_FROM = 0;
  70:SettingsHelper.c **** uint8 NIGHT_TO = 24;
  71:SettingsHelper.c **** uint8 PH_RES_ON = 1;
  72:SettingsHelper.c **** uint8 AUTO_POWERON = 1;
  73:SettingsHelper.c **** uint16 WATCH_DELAY = 20;
  74:SettingsHelper.c **** uint16 DEACT_DELAY = 20;
  75:SettingsHelper.c **** uint16 BEEPING_DELAY = 20;
  76:SettingsHelper.c **** uint8 COMMUNICATION_MODE = LCD_COMMUNICATION;
  77:SettingsHelper.c **** 
ARM GAS  C:\Users\David\AppData\Local\Temp\ccJPkTSt.s 			page 4


  78:SettingsHelper.c **** 
  79:SettingsHelper.c **** void printChar(char8 c) {
  91              		.loc 1 79 0
  92              		.cfi_startproc
  93              		@ args = 0, pretend = 0, frame = 0
  94              		@ frame_needed = 0, uses_anonymous_args = 0
  95              	.LVL11:
  96 0000 08B5     		push	{r3, lr}
  97              		.cfi_def_cfa_offset 8
  98              		.cfi_offset 3, -8
  99              		.cfi_offset 14, -4
  80:SettingsHelper.c ****     if (COMMUNICATION_MODE == COMPUTER_COMMUNICATION) {
 100              		.loc 1 80 0
 101 0002 084B     		ldr	r3, .L10
 102 0004 1B78     		ldrb	r3, [r3]	@ zero_extendqisi2
 103 0006 012B     		cmp	r3, #1
 104 0008 02D1     		bne	.L6
  81:SettingsHelper.c ****         UART_PutChar(c);
 105              		.loc 1 81 0
 106 000a FFF7FEFF 		bl	UART_PutChar
 107              	.LVL12:
 108 000e 08BD     		pop	{r3, pc}
 109              	.LVL13:
 110              	.L6:
  82:SettingsHelper.c ****     }
  83:SettingsHelper.c ****     else if (COMMUNICATION_MODE == LCD_COMMUNICATION){
 111              		.loc 1 83 0
 112 0010 13B9     		cbnz	r3, .L8
  84:SettingsHelper.c ****         LCD_PutChar(c);
 113              		.loc 1 84 0
 114 0012 FFF7FEFF 		bl	LCD_PutChar
 115              	.LVL14:
 116 0016 08BD     		pop	{r3, pc}
 117              	.LVL15:
 118              	.L8:
  85:SettingsHelper.c ****     }
  86:SettingsHelper.c ****     else if (COMMUNICATION_MODE == ESP_COMMUNICATION){
 119              		.loc 1 86 0
 120 0018 022B     		cmp	r3, #2
 121 001a 01D1     		bne	.L5
  87:SettingsHelper.c ****         UART_ESP_PutChar(c);
 122              		.loc 1 87 0
 123 001c FFF7FEFF 		bl	UART_ESP_PutChar
 124              	.LVL16:
 125              	.L5:
 126 0020 08BD     		pop	{r3, pc}
 127              	.L11:
 128 0022 00BF     		.align	2
 129              	.L10:
 130 0024 00000000 		.word	.LANCHOR0
 131              		.cfi_endproc
 132              	.LFE64:
 133              		.size	printChar, .-printChar
 134              		.section	.text.printString,"ax",%progbits
 135              		.align	2
 136              		.global	printString
 137              		.thumb
ARM GAS  C:\Users\David\AppData\Local\Temp\ccJPkTSt.s 			page 5


 138              		.thumb_func
 139              		.type	printString, %function
 140              	printString:
 141              	.LFB65:
  88:SettingsHelper.c ****     }
  89:SettingsHelper.c **** }
  90:SettingsHelper.c **** 
  91:SettingsHelper.c **** void printString(const char8* str) {
 142              		.loc 1 91 0
 143              		.cfi_startproc
 144              		@ args = 0, pretend = 0, frame = 0
 145              		@ frame_needed = 0, uses_anonymous_args = 0
 146              	.LVL17:
 147 0000 10B5     		push	{r4, lr}
 148              		.cfi_def_cfa_offset 8
 149              		.cfi_offset 4, -8
 150              		.cfi_offset 14, -4
 151 0002 0446     		mov	r4, r0
  92:SettingsHelper.c ****     if (COMMUNICATION_MODE == COMPUTER_COMMUNICATION) {
 152              		.loc 1 92 0
 153 0004 0B4B     		ldr	r3, .L17
 154 0006 1B78     		ldrb	r3, [r3]	@ zero_extendqisi2
 155 0008 012B     		cmp	r3, #1
 156 000a 06D1     		bne	.L13
  93:SettingsHelper.c ****         UART_PutString("\r\n");
 157              		.loc 1 93 0
 158 000c 0A48     		ldr	r0, .L17+4
 159              	.LVL18:
 160 000e FFF7FEFF 		bl	UART_PutString
 161              	.LVL19:
  94:SettingsHelper.c ****         UART_PutString(str);
 162              		.loc 1 94 0
 163 0012 2046     		mov	r0, r4
 164 0014 FFF7FEFF 		bl	UART_PutString
 165              	.LVL20:
 166 0018 10BD     		pop	{r4, pc}
 167              	.LVL21:
 168              	.L13:
  95:SettingsHelper.c ****     }
  96:SettingsHelper.c ****     else if (COMMUNICATION_MODE == LCD_COMMUNICATION) {
 169              		.loc 1 96 0
 170 001a 13B9     		cbnz	r3, .L15
  97:SettingsHelper.c ****         LCD_PrintString(str);
 171              		.loc 1 97 0
 172 001c FFF7FEFF 		bl	LCD_PrintString
 173              	.LVL22:
 174 0020 10BD     		pop	{r4, pc}
 175              	.LVL23:
 176              	.L15:
  98:SettingsHelper.c ****     }
  99:SettingsHelper.c ****     else if (COMMUNICATION_MODE == ESP_COMMUNICATION) {
 177              		.loc 1 99 0
 178 0022 022B     		cmp	r3, #2
 179 0024 05D1     		bne	.L12
 100:SettingsHelper.c ****         UART_ESP_PutString("\r\n");
 180              		.loc 1 100 0
 181 0026 0448     		ldr	r0, .L17+4
ARM GAS  C:\Users\David\AppData\Local\Temp\ccJPkTSt.s 			page 6


 182              	.LVL24:
 183 0028 FFF7FEFF 		bl	UART_ESP_PutString
 184              	.LVL25:
 101:SettingsHelper.c ****         UART_ESP_PutString(str);
 185              		.loc 1 101 0
 186 002c 2046     		mov	r0, r4
 187 002e FFF7FEFF 		bl	UART_ESP_PutString
 188              	.LVL26:
 189              	.L12:
 190 0032 10BD     		pop	{r4, pc}
 191              	.LVL27:
 192              	.L18:
 193              		.align	2
 194              	.L17:
 195 0034 00000000 		.word	.LANCHOR0
 196 0038 00000000 		.word	.LC0
 197              		.cfi_endproc
 198              	.LFE65:
 199              		.size	printString, .-printString
 200              		.section	.text.try_to_read_code_from_keyboard,"ax",%progbits
 201              		.align	2
 202              		.global	try_to_read_code_from_keyboard
 203              		.thumb
 204              		.thumb_func
 205              		.type	try_to_read_code_from_keyboard, %function
 206              	try_to_read_code_from_keyboard:
 207              	.LFB66:
 102:SettingsHelper.c ****     }
 103:SettingsHelper.c **** }
 104:SettingsHelper.c **** 
 105:SettingsHelper.c **** /*
 106:SettingsHelper.c **** Megnezi, hogy nincs e eppen a helyes kod beirva.
 107:SettingsHelper.c **** */
 108:SettingsHelper.c **** uint8 try_to_read_code_from_keyboard() {
 208              		.loc 1 108 0
 209              		.cfi_startproc
 210              		@ args = 0, pretend = 0, frame = 0
 211              		@ frame_needed = 0, uses_anonymous_args = 0
 212 0000 10B5     		push	{r4, lr}
 213              		.cfi_def_cfa_offset 8
 214              		.cfi_offset 4, -8
 215              		.cfi_offset 14, -4
 109:SettingsHelper.c ****     uint8 pressed_key = get_pressed_key();
 216              		.loc 1 109 0
 217 0002 FFF7FEFF 		bl	get_pressed_key
 218              	.LVL28:
 110:SettingsHelper.c ****     if (pressed_key != 0) { //gombnyomas eseten -  ilyenkor feletelezem, hogy a kodot irom be
 219              		.loc 1 110 0
 220 0006 0028     		cmp	r0, #0
 221 0008 38D0     		beq	.L25
 222 000a 0446     		mov	r4, r0
 111:SettingsHelper.c ****     
 112:SettingsHelper.c ****     if (!code_buffer_ind) {
 223              		.loc 1 112 0
 224 000c 1D4B     		ldr	r3, .L30
 225 000e 5B78     		ldrb	r3, [r3, #1]	@ zero_extendqisi2
 226 0010 33B9     		cbnz	r3, .L21
ARM GAS  C:\Users\David\AppData\Local\Temp\ccJPkTSt.s 			page 7


 113:SettingsHelper.c ****         LCD_ClearDisplay();
 227              		.loc 1 113 0
 228 0012 0120     		movs	r0, #1
 229              	.LVL29:
 230 0014 FFF7FEFF 		bl	LCD_WriteControl
 231              	.LVL30:
 114:SettingsHelper.c ****         LCD_Position(1u, 0u);
 232              		.loc 1 114 0
 233 0018 0021     		movs	r1, #0
 234 001a 0120     		movs	r0, #1
 235 001c FFF7FEFF 		bl	LCD_Position
 236              	.LVL31:
 237              	.L21:
 115:SettingsHelper.c ****     }    
 116:SettingsHelper.c ****     
 117:SettingsHelper.c ****     
 118:SettingsHelper.c ****     printChar('*');
 238              		.loc 1 118 0
 239 0020 2A20     		movs	r0, #42
 240 0022 FFF7FEFF 		bl	printChar
 241              	.LVL32:
 119:SettingsHelper.c ****     
 120:SettingsHelper.c ****     code_buffer[code_buffer_ind++] = pressed_key;
 242              		.loc 1 120 0
 243 0026 1749     		ldr	r1, .L30
 244 0028 4A78     		ldrb	r2, [r1, #1]	@ zero_extendqisi2
 245 002a 531C     		adds	r3, r2, #1
 246 002c DBB2     		uxtb	r3, r3
 247 002e 4B70     		strb	r3, [r1, #1]
 248 0030 1549     		ldr	r1, .L30+4
 249 0032 8C54     		strb	r4, [r1, r2]
 250              	.LVL33:
 121:SettingsHelper.c ****     pressed_key = 0;                
 122:SettingsHelper.c ****     if (code_buffer_ind == 4) {
 251              		.loc 1 122 0
 252 0034 042B     		cmp	r3, #4
 253 0036 0AD0     		beq	.L26
 123:SettingsHelper.c ****         uint8 result = 1u;
 124:SettingsHelper.c ****         for (uint8 i = 0; i < 4; i++) {
 125:SettingsHelper.c ****             if (code_buffer[i] != CODE[i]) {
 126:SettingsHelper.c ****                 result = 0u;
 127:SettingsHelper.c ****                 break;
 128:SettingsHelper.c ****             }
 129:SettingsHelper.c ****         }
 130:SettingsHelper.c ****         code_buffer_ind = 0;
 131:SettingsHelper.c ****         if (result == 0u) {
 132:SettingsHelper.c ****             LCD_Position(1u, 0u);
 133:SettingsHelper.c ****             printString("Hibas kod!");
 134:SettingsHelper.c ****             LCD_Position(1u, 0u);
 135:SettingsHelper.c ****         }
 136:SettingsHelper.c ****         return  result;
 137:SettingsHelper.c ****      }
 138:SettingsHelper.c ****    }
 139:SettingsHelper.c ****     return 0u;
 254              		.loc 1 139 0
 255 0038 0020     		movs	r0, #0
 256 003a 10BD     		pop	{r4, pc}
ARM GAS  C:\Users\David\AppData\Local\Temp\ccJPkTSt.s 			page 8


 257              	.LVL34:
 258              	.L24:
 259              	.LBB4:
 260              	.LBB5:
 125:SettingsHelper.c ****                 result = 0u;
 261              		.loc 1 125 0
 262 003c 124A     		ldr	r2, .L30+4
 263 003e D15C     		ldrb	r1, [r2, r3]	@ zero_extendqisi2
 264 0040 124A     		ldr	r2, .L30+8
 265 0042 D25C     		ldrb	r2, [r2, r3]	@ zero_extendqisi2
 266 0044 9142     		cmp	r1, r2
 267 0046 07D1     		bne	.L27
 124:SettingsHelper.c ****             if (code_buffer[i] != CODE[i]) {
 268              		.loc 1 124 0 discriminator 2
 269 0048 0133     		adds	r3, r3, #1
 270              	.LVL35:
 271 004a DBB2     		uxtb	r3, r3
 272              	.LVL36:
 273 004c 00E0     		b	.L22
 274              	.LVL37:
 275              	.L26:
 276              	.LBE5:
 277              	.LBE4:
 278 004e 0023     		movs	r3, #0
 279              	.L22:
 280              	.LVL38:
 281              	.LBB8:
 282              	.LBB6:
 124:SettingsHelper.c ****             if (code_buffer[i] != CODE[i]) {
 283              		.loc 1 124 0 is_stmt 0 discriminator 1
 284 0050 032B     		cmp	r3, #3
 285 0052 F3D9     		bls	.L24
 286              	.LBE6:
 123:SettingsHelper.c ****         uint8 result = 1u;
 287              		.loc 1 123 0 is_stmt 1
 288 0054 0124     		movs	r4, #1
 289              	.LBB7:
 290 0056 00E0     		b	.L23
 291              	.L27:
 126:SettingsHelper.c ****                 break;
 292              		.loc 1 126 0
 293 0058 0024     		movs	r4, #0
 294              	.L23:
 295              	.LVL39:
 296              	.LBE7:
 130:SettingsHelper.c ****         if (result == 0u) {
 297              		.loc 1 130 0
 298 005a 0022     		movs	r2, #0
 299 005c 094B     		ldr	r3, .L30
 300              	.LVL40:
 301 005e 5A70     		strb	r2, [r3, #1]
 131:SettingsHelper.c ****             LCD_Position(1u, 0u);
 302              		.loc 1 131 0
 303 0060 74B9     		cbnz	r4, .L28
 132:SettingsHelper.c ****             printString("Hibas kod!");
 304              		.loc 1 132 0
 305 0062 1146     		mov	r1, r2
ARM GAS  C:\Users\David\AppData\Local\Temp\ccJPkTSt.s 			page 9


 306 0064 0120     		movs	r0, #1
 307 0066 FFF7FEFF 		bl	LCD_Position
 308              	.LVL41:
 133:SettingsHelper.c ****             LCD_Position(1u, 0u);
 309              		.loc 1 133 0
 310 006a 0948     		ldr	r0, .L30+12
 311 006c FFF7FEFF 		bl	printString
 312              	.LVL42:
 134:SettingsHelper.c ****         }
 313              		.loc 1 134 0
 314 0070 0021     		movs	r1, #0
 315 0072 0120     		movs	r0, #1
 316 0074 FFF7FEFF 		bl	LCD_Position
 317              	.LVL43:
 136:SettingsHelper.c ****      }
 318              		.loc 1 136 0
 319 0078 2046     		mov	r0, r4
 320 007a 10BD     		pop	{r4, pc}
 321              	.LVL44:
 322              	.L25:
 323              	.LBE8:
 324              		.loc 1 139 0
 325 007c 0020     		movs	r0, #0
 326              	.LVL45:
 327 007e 10BD     		pop	{r4, pc}
 328              	.LVL46:
 329              	.L28:
 330              	.LBB9:
 136:SettingsHelper.c ****      }
 331              		.loc 1 136 0
 332 0080 2046     		mov	r0, r4
 333              	.LBE9:
 140:SettingsHelper.c **** }
 334              		.loc 1 140 0
 335 0082 10BD     		pop	{r4, pc}
 336              	.LVL47:
 337              	.L31:
 338              		.align	2
 339              	.L30:
 340 0084 00000000 		.word	.LANCHOR0
 341 0088 00000000 		.word	code_buffer
 342 008c 00000000 		.word	.LANCHOR1
 343 0090 04000000 		.word	.LC1
 344              		.cfi_endproc
 345              	.LFE66:
 346              		.size	try_to_read_code_from_keyboard, .-try_to_read_code_from_keyboard
 347              		.section	.text.read_num_from_keypad,"ax",%progbits
 348              		.align	2
 349              		.global	read_num_from_keypad
 350              		.thumb
 351              		.thumb_func
 352              		.type	read_num_from_keypad, %function
 353              	read_num_from_keypad:
 354              	.LFB67:
 141:SettingsHelper.c **** 
 142:SettingsHelper.c **** int16 read_num_from_keypad(uint8 pressed) {
 355              		.loc 1 142 0
ARM GAS  C:\Users\David\AppData\Local\Temp\ccJPkTSt.s 			page 10


 356              		.cfi_startproc
 357              		@ args = 0, pretend = 0, frame = 0
 358              		@ frame_needed = 0, uses_anonymous_args = 0
 359              	.LVL48:
 360 0000 10B5     		push	{r4, lr}
 361              		.cfi_def_cfa_offset 8
 362              		.cfi_offset 4, -8
 363              		.cfi_offset 14, -4
 143:SettingsHelper.c ****     
 144:SettingsHelper.c ****    
 145:SettingsHelper.c ****     if (pressed == '*')
 364              		.loc 1 145 0
 365 0002 2A28     		cmp	r0, #42
 366 0004 22D0     		beq	.L35
 146:SettingsHelper.c ****         return -2;
 147:SettingsHelper.c ****     if (pressed == 0 || pressed == 'A' || pressed == 'B' || pressed == 'C' || pressed == 'D' || num
 367              		.loc 1 147 0
 368 0006 20B3     		cbz	r0, .L36
 369              		.loc 1 147 0 is_stmt 0 discriminator 1
 370 0008 4128     		cmp	r0, #65
 371 000a 25D0     		beq	.L37
 372              		.loc 1 147 0 discriminator 2
 373 000c 4228     		cmp	r0, #66
 374 000e 26D0     		beq	.L38
 375              		.loc 1 147 0 discriminator 3
 376 0010 4328     		cmp	r0, #67
 377 0012 27D0     		beq	.L39
 378              		.loc 1 147 0 discriminator 4
 379 0014 4428     		cmp	r0, #68
 380 0016 28D0     		beq	.L40
 381              		.loc 1 147 0 discriminator 5
 382 0018 184B     		ldr	r3, .L44
 383 001a 9B78     		ldrb	r3, [r3, #2]	@ zero_extendqisi2
 384 001c 042B     		cmp	r3, #4
 385 001e 27D8     		bhi	.L41
 148:SettingsHelper.c ****         return -1;
 149:SettingsHelper.c ****     } else if (pressed == '#'){
 386              		.loc 1 149 0 is_stmt 1
 387 0020 2328     		cmp	r0, #35
 388 0022 09D1     		bne	.L34
 389              	.LBB10:
 150:SettingsHelper.c ****         if (num_ind == 0)
 390              		.loc 1 150 0
 391 0024 3BB3     		cbz	r3, .L42
 151:SettingsHelper.c ****             return -1;
 152:SettingsHelper.c ****         num_buffer[num_ind] = '\0';
 392              		.loc 1 152 0
 393 0026 1648     		ldr	r0, .L44+4
 394              	.LVL49:
 395 0028 0024     		movs	r4, #0
 396 002a C454     		strb	r4, [r0, r3]
 153:SettingsHelper.c ****         uint16 result =  toInt(num_buffer);
 397              		.loc 1 153 0
 398 002c FFF7FEFF 		bl	toInt
 399              	.LVL50:
 154:SettingsHelper.c ****         num_ind = 0;
 400              		.loc 1 154 0
ARM GAS  C:\Users\David\AppData\Local\Temp\ccJPkTSt.s 			page 11


 401 0030 124B     		ldr	r3, .L44
 402 0032 9C70     		strb	r4, [r3, #2]
 155:SettingsHelper.c ****         return result;
 403              		.loc 1 155 0
 404 0034 00B2     		sxth	r0, r0
 405 0036 10BD     		pop	{r4, pc}
 406              	.LVL51:
 407              	.L34:
 408              	.LBE10:
 156:SettingsHelper.c ****     }         
 157:SettingsHelper.c ****     num_buffer[num_ind++] = pressed;
 409              		.loc 1 157 0
 410 0038 591C     		adds	r1, r3, #1
 411 003a 104A     		ldr	r2, .L44
 412 003c 9170     		strb	r1, [r2, #2]
 413 003e 104A     		ldr	r2, .L44+4
 414 0040 D054     		strb	r0, [r2, r3]
 158:SettingsHelper.c ****     printChar(pressed);
 415              		.loc 1 158 0
 416 0042 FFF7FEFF 		bl	printChar
 417              	.LVL52:
 159:SettingsHelper.c ****         
 160:SettingsHelper.c ****     return -1;      
 418              		.loc 1 160 0
 419 0046 4FF0FF30 		mov	r0, #-1
 420 004a 10BD     		pop	{r4, pc}
 421              	.LVL53:
 422              	.L35:
 146:SettingsHelper.c ****     if (pressed == 0 || pressed == 'A' || pressed == 'B' || pressed == 'C' || pressed == 'D' || num
 423              		.loc 1 146 0
 424 004c 6FF00100 		mvn	r0, #1
 425              	.LVL54:
 426 0050 10BD     		pop	{r4, pc}
 427              	.LVL55:
 428              	.L36:
 148:SettingsHelper.c ****     } else if (pressed == '#'){
 429              		.loc 1 148 0
 430 0052 4FF0FF30 		mov	r0, #-1
 431              	.LVL56:
 432 0056 10BD     		pop	{r4, pc}
 433              	.LVL57:
 434              	.L37:
 435 0058 4FF0FF30 		mov	r0, #-1
 436              	.LVL58:
 437 005c 10BD     		pop	{r4, pc}
 438              	.LVL59:
 439              	.L38:
 440 005e 4FF0FF30 		mov	r0, #-1
 441              	.LVL60:
 442 0062 10BD     		pop	{r4, pc}
 443              	.LVL61:
 444              	.L39:
 445 0064 4FF0FF30 		mov	r0, #-1
 446              	.LVL62:
 447 0068 10BD     		pop	{r4, pc}
 448              	.LVL63:
 449              	.L40:
ARM GAS  C:\Users\David\AppData\Local\Temp\ccJPkTSt.s 			page 12


 450 006a 4FF0FF30 		mov	r0, #-1
 451              	.LVL64:
 452 006e 10BD     		pop	{r4, pc}
 453              	.LVL65:
 454              	.L41:
 455 0070 4FF0FF30 		mov	r0, #-1
 456              	.LVL66:
 457 0074 10BD     		pop	{r4, pc}
 458              	.LVL67:
 459              	.L42:
 460              	.LBB11:
 151:SettingsHelper.c ****         num_buffer[num_ind] = '\0';
 461              		.loc 1 151 0
 462 0076 4FF0FF30 		mov	r0, #-1
 463              	.LVL68:
 464              	.LBE11:
 161:SettingsHelper.c **** }
 465              		.loc 1 161 0
 466 007a 10BD     		pop	{r4, pc}
 467              	.L45:
 468              		.align	2
 469              	.L44:
 470 007c 00000000 		.word	.LANCHOR0
 471 0080 00000000 		.word	num_buffer
 472              		.cfi_endproc
 473              	.LFE67:
 474              		.size	read_num_from_keypad, .-read_num_from_keypad
 475              		.section	.text.print_lines_to_lcd,"ax",%progbits
 476              		.align	2
 477              		.global	print_lines_to_lcd
 478              		.thumb
 479              		.thumb_func
 480              		.type	print_lines_to_lcd, %function
 481              	print_lines_to_lcd:
 482              	.LFB71:
 162:SettingsHelper.c **** 
 163:SettingsHelper.c **** void change_16_num() {
 164:SettingsHelper.c ****     int16 new_delay = read_num_from_keypad(get_pressed_key());
 165:SettingsHelper.c ****     if (new_delay >= 0) {
 166:SettingsHelper.c ****        StoreInt16(new_delay, actual_eeprom_addr);
 167:SettingsHelper.c ****        init_constants();
 168:SettingsHelper.c ****        change_page(&menu_system[1]);
 169:SettingsHelper.c ****     }
 170:SettingsHelper.c ****     else if (new_delay == -2) {
 171:SettingsHelper.c ****         num_ind = 0;
 172:SettingsHelper.c ****         change_page(&menu_system[1]);
 173:SettingsHelper.c ****     }
 174:SettingsHelper.c **** }
 175:SettingsHelper.c **** 
 176:SettingsHelper.c **** void change_8_num() {
 177:SettingsHelper.c ****     int16 new_delay = read_num_from_keypad(get_pressed_key());
 178:SettingsHelper.c ****     if (new_delay >= 0) {
 179:SettingsHelper.c ****        StoreInt8(new_delay, actual_eeprom_addr);
 180:SettingsHelper.c ****        init_constants();
 181:SettingsHelper.c ****        change_page(&menu_system[1]);
 182:SettingsHelper.c ****     }
 183:SettingsHelper.c ****     else if (new_delay == -2) {
ARM GAS  C:\Users\David\AppData\Local\Temp\ccJPkTSt.s 			page 13


 184:SettingsHelper.c ****         num_ind = 0;
 185:SettingsHelper.c ****         change_page(&menu_system[1]);
 186:SettingsHelper.c ****     }
 187:SettingsHelper.c **** }
 188:SettingsHelper.c **** 
 189:SettingsHelper.c **** void ask_bool() {
 190:SettingsHelper.c **** uint8 pressed = get_pressed_key();
 191:SettingsHelper.c **** if (pressed == '1') {
 192:SettingsHelper.c ****  StoreInt8(1, actual_eeprom_addr);
 193:SettingsHelper.c ****  change_page(&menu_system[0]);
 194:SettingsHelper.c **** init_constants();
 195:SettingsHelper.c **** }
 196:SettingsHelper.c **** else if (pressed == '0') {
 197:SettingsHelper.c ****  StoreInt8(0, actual_eeprom_addr);
 198:SettingsHelper.c ****  change_page(&menu_system[0]);
 199:SettingsHelper.c **** init_constants();
 200:SettingsHelper.c **** }
 201:SettingsHelper.c **** else if (pressed == '*') {
 202:SettingsHelper.c **** change_page(&menu_system[1]);
 203:SettingsHelper.c **** }
 204:SettingsHelper.c **** 
 205:SettingsHelper.c **** }
 206:SettingsHelper.c **** 
 207:SettingsHelper.c **** void print_lines_to_lcd(const char * line1, const char * line2) {
 483              		.loc 1 207 0
 484              		.cfi_startproc
 485              		@ args = 0, pretend = 0, frame = 0
 486              		@ frame_needed = 0, uses_anonymous_args = 0
 487              	.LVL69:
 488 0000 38B5     		push	{r3, r4, r5, lr}
 489              		.cfi_def_cfa_offset 16
 490              		.cfi_offset 3, -16
 491              		.cfi_offset 4, -12
 492              		.cfi_offset 5, -8
 493              		.cfi_offset 14, -4
 494 0002 0546     		mov	r5, r0
 495 0004 0C46     		mov	r4, r1
 208:SettingsHelper.c ****     LCD_ClearDisplay();
 496              		.loc 1 208 0
 497 0006 0120     		movs	r0, #1
 498              	.LVL70:
 499 0008 FFF7FEFF 		bl	LCD_WriteControl
 500              	.LVL71:
 209:SettingsHelper.c ****     LCD_Position(0u, 0u);
 501              		.loc 1 209 0
 502 000c 0021     		movs	r1, #0
 503 000e 0846     		mov	r0, r1
 504 0010 FFF7FEFF 		bl	LCD_Position
 505              	.LVL72:
 210:SettingsHelper.c ****     printString(line1);
 506              		.loc 1 210 0
 507 0014 2846     		mov	r0, r5
 508 0016 FFF7FEFF 		bl	printString
 509              	.LVL73:
 211:SettingsHelper.c ****     LCD_Position(1u,0u);
 510              		.loc 1 211 0
 511 001a 0021     		movs	r1, #0
ARM GAS  C:\Users\David\AppData\Local\Temp\ccJPkTSt.s 			page 14


 512 001c 0120     		movs	r0, #1
 513 001e FFF7FEFF 		bl	LCD_Position
 514              	.LVL74:
 212:SettingsHelper.c ****     printString(line2);
 515              		.loc 1 212 0
 516 0022 2046     		mov	r0, r4
 517 0024 FFF7FEFF 		bl	printString
 518              	.LVL75:
 519 0028 38BD     		pop	{r3, r4, r5, pc}
 520              		.cfi_endproc
 521              	.LFE71:
 522              		.size	print_lines_to_lcd, .-print_lines_to_lcd
 523 002a 00BF     		.section	.text.print_page,"ax",%progbits
 524              		.align	2
 525              		.global	print_page
 526              		.thumb
 527              		.thumb_func
 528              		.type	print_page, %function
 529              	print_page:
 530              	.LFB72:
 213:SettingsHelper.c **** }
 214:SettingsHelper.c **** 
 215:SettingsHelper.c **** void print_page(page * p) {
 531              		.loc 1 215 0
 532              		.cfi_startproc
 533              		@ args = 0, pretend = 0, frame = 0
 534              		@ frame_needed = 0, uses_anonymous_args = 0
 535              	.LVL76:
 536 0000 08B5     		push	{r3, lr}
 537              		.cfi_def_cfa_offset 8
 538              		.cfi_offset 3, -8
 539              		.cfi_offset 14, -4
 216:SettingsHelper.c ****     print_lines_to_lcd(p->line1, p->line2);
 540              		.loc 1 216 0
 541 0002 4168     		ldr	r1, [r0, #4]
 542 0004 0068     		ldr	r0, [r0]
 543              	.LVL77:
 544 0006 FFF7FEFF 		bl	print_lines_to_lcd
 545              	.LVL78:
 546 000a 08BD     		pop	{r3, pc}
 547              		.cfi_endproc
 548              	.LFE72:
 549              		.size	print_page, .-print_page
 550              		.section	.text.change_page,"ax",%progbits
 551              		.align	2
 552              		.global	change_page
 553              		.thumb
 554              		.thumb_func
 555              		.type	change_page, %function
 556              	change_page:
 557              	.LFB73:
 217:SettingsHelper.c **** }
 218:SettingsHelper.c **** 
 219:SettingsHelper.c **** void change_page(menu_item * dest) {
 558              		.loc 1 219 0
 559              		.cfi_startproc
 560              		@ args = 0, pretend = 0, frame = 0
ARM GAS  C:\Users\David\AppData\Local\Temp\ccJPkTSt.s 			page 15


 561              		@ frame_needed = 0, uses_anonymous_args = 0
 562              	.LVL79:
 563 0000 10B5     		push	{r4, lr}
 564              		.cfi_def_cfa_offset 8
 565              		.cfi_offset 4, -8
 566              		.cfi_offset 14, -4
 567 0002 0446     		mov	r4, r0
 220:SettingsHelper.c ****     print_page(&(dest->page));
 568              		.loc 1 220 0
 569 0004 FFF7FEFF 		bl	print_page
 570              	.LVL80:
 221:SettingsHelper.c ****     actual_menu_item = *dest;
 571              		.loc 1 221 0
 572 0008 024B     		ldr	r3, .L52
 573 000a 94E80700 		ldmia	r4, {r0, r1, r2}
 574 000e 83E80700 		stmia	r3, {r0, r1, r2}
 575 0012 10BD     		pop	{r4, pc}
 576              	.LVL81:
 577              	.L53:
 578              		.align	2
 579              	.L52:
 580 0014 00000000 		.word	actual_menu_item
 581              		.cfi_endproc
 582              	.LFE73:
 583              		.size	change_page, .-change_page
 584              		.section	.text.vertify_code,"ax",%progbits
 585              		.align	2
 586              		.global	vertify_code
 587              		.thumb
 588              		.thumb_func
 589              		.type	vertify_code, %function
 590              	vertify_code:
 591              	.LFB74:
 222:SettingsHelper.c **** } 
 223:SettingsHelper.c **** 
 224:SettingsHelper.c **** void vertify_code() {
 592              		.loc 1 224 0
 593              		.cfi_startproc
 594              		@ args = 0, pretend = 0, frame = 0
 595              		@ frame_needed = 0, uses_anonymous_args = 0
 596 0000 08B5     		push	{r3, lr}
 597              		.cfi_def_cfa_offset 8
 598              		.cfi_offset 3, -8
 599              		.cfi_offset 14, -4
 225:SettingsHelper.c ****    if (try_to_read_code_from_keyboard()) {
 600              		.loc 1 225 0
 601 0002 FFF7FEFF 		bl	try_to_read_code_from_keyboard
 602              	.LVL82:
 603 0006 10B1     		cbz	r0, .L54
 226:SettingsHelper.c ****         change_page(&menu_system[12]);
 604              		.loc 1 226 0
 605 0008 0148     		ldr	r0, .L57
 606 000a FFF7FEFF 		bl	change_page
 607              	.LVL83:
 608              	.L54:
 609 000e 08BD     		pop	{r3, pc}
 610              	.L58:
ARM GAS  C:\Users\David\AppData\Local\Temp\ccJPkTSt.s 			page 16


 611              		.align	2
 612              	.L57:
 613 0010 94000000 		.word	.LANCHOR1+148
 614              		.cfi_endproc
 615              	.LFE74:
 616              		.size	vertify_code, .-vertify_code
 617              		.section	.text.handle_main_menu_page,"ax",%progbits
 618              		.align	2
 619              		.global	handle_main_menu_page
 620              		.thumb
 621              		.thumb_func
 622              		.type	handle_main_menu_page, %function
 623              	handle_main_menu_page:
 624              	.LFB83:
 227:SettingsHelper.c ****     }
 228:SettingsHelper.c **** }
 229:SettingsHelper.c **** 
 230:SettingsHelper.c **** 
 231:SettingsHelper.c **** uint8 new_code_buffer[4];
 232:SettingsHelper.c **** uint8 new_code_buffer_ind = 0;
 233:SettingsHelper.c **** 
 234:SettingsHelper.c **** uint8 read_new_code(uint8 pressed) {
 235:SettingsHelper.c ****     if (pressed != 0) {
 236:SettingsHelper.c ****         if (new_code_buffer_ind == 0) {
 237:SettingsHelper.c ****             LCD_Position(1u, 0u);
 238:SettingsHelper.c ****         }
 239:SettingsHelper.c ****         new_code_buffer[new_code_buffer_ind++] = pressed;
 240:SettingsHelper.c ****         printChar('*');
 241:SettingsHelper.c ****         if (new_code_buffer_ind == 4) {
 242:SettingsHelper.c ****             return 1u; 
 243:SettingsHelper.c ****         } 
 244:SettingsHelper.c ****     }
 245:SettingsHelper.c ****     return 0u;
 246:SettingsHelper.c **** }
 247:SettingsHelper.c **** 
 248:SettingsHelper.c **** uint8 entered_code[4];
 249:SettingsHelper.c **** uint8 first_entered = 0u;
 250:SettingsHelper.c **** 
 251:SettingsHelper.c **** void select_new_code() {
 252:SettingsHelper.c ****     if (first_entered == 0u) {
 253:SettingsHelper.c ****          if (read_new_code(get_pressed_key()) != 0u) {
 254:SettingsHelper.c ****             for (uint8 i = 0; i < 4; i++)
 255:SettingsHelper.c ****                 entered_code[i] = new_code_buffer[i];    
 256:SettingsHelper.c ****                 
 257:SettingsHelper.c ****             first_entered = 1u;    
 258:SettingsHelper.c ****             new_code_buffer_ind = 0;
 259:SettingsHelper.c ****             print_lines_to_lcd("Uj kod ujra:","             ");    
 260:SettingsHelper.c ****         }
 261:SettingsHelper.c ****     }
 262:SettingsHelper.c ****     else {
 263:SettingsHelper.c ****         if (read_new_code(get_pressed_key()) != 0u) {
 264:SettingsHelper.c ****            
 265:SettingsHelper.c ****              for (uint8 i = 0; i < 4; i++) {
 266:SettingsHelper.c ****                 if (entered_code[i] != new_code_buffer[i]) {
 267:SettingsHelper.c ****                     print_lines_to_lcd("Nem egyeznek meg!","             ");
 268:SettingsHelper.c ****                     first_entered = 0u;
 269:SettingsHelper.c ****                     new_code_buffer_ind = 0;
ARM GAS  C:\Users\David\AppData\Local\Temp\ccJPkTSt.s 			page 17


 270:SettingsHelper.c ****                     return;
 271:SettingsHelper.c ****                 }   
 272:SettingsHelper.c ****              }
 273:SettingsHelper.c ****             StoreInt8ArrayToRow(new_code_buffer, CODE_ADDR);
 274:SettingsHelper.c ****             first_entered = 0u;
 275:SettingsHelper.c ****             new_code_buffer_ind = 0;
 276:SettingsHelper.c ****             init_code();
 277:SettingsHelper.c ****             change_page(&menu_system[0]);
 278:SettingsHelper.c ****         }
 279:SettingsHelper.c ****     }
 280:SettingsHelper.c **** }
 281:SettingsHelper.c **** 
 282:SettingsHelper.c **** void init_constants() {
 283:SettingsHelper.c **** NIGHT_FROM = ReadInt8(NIGHT_FROM_ADDR);
 284:SettingsHelper.c **** NIGHT_TO = ReadInt8(NIGHT_UNITL_ADDR);
 285:SettingsHelper.c **** PH_RES_ON = ReadInt8(USE_PHOTO_RES_ADDR);
 286:SettingsHelper.c **** AUTO_POWERON = ReadInt8(AUTO_WATCH_ACTIVATED_ADDR);
 287:SettingsHelper.c **** WATCH_DELAY = ReadInt16(WATCH_DELAY_ADDR);
 288:SettingsHelper.c **** DEACT_DELAY = ReadInt16(DEACT_DELAY_ADDR);
 289:SettingsHelper.c **** BEEPING_DELAY = ReadInt16(BEEP_LENGTH_ADDR);
 290:SettingsHelper.c **** }
 291:SettingsHelper.c **** 
 292:SettingsHelper.c **** void init_code() {
 293:SettingsHelper.c **** ReadInt8ArrayFromRow(CODE, 4, CODE_ADDR);
 294:SettingsHelper.c **** }
 295:SettingsHelper.c **** 
 296:SettingsHelper.c **** uint8 phone_num_temp_buffer[10];
 297:SettingsHelper.c **** void init_phone_num() {
 298:SettingsHelper.c ****     
 299:SettingsHelper.c **** ReadInt8ArrayFromRow(phone_num_temp_buffer, 9, PHONE_NUM_1_ADDR);   
 300:SettingsHelper.c **** for (uint8 i = 0; i < 9; i++) {
 301:SettingsHelper.c **** PHONE_NUM[i] = phone_num_temp_buffer[i];
 302:SettingsHelper.c **** }
 303:SettingsHelper.c **** PHONE_NUM[9] = '\0';
 304:SettingsHelper.c **** 
 305:SettingsHelper.c **** 
 306:SettingsHelper.c **** }
 307:SettingsHelper.c **** 
 308:SettingsHelper.c **** /*
 309:SettingsHelper.c **** Le kell futtatni mindig, a menurenszerbe lepes elott.
 310:SettingsHelper.c **** */
 311:SettingsHelper.c **** void init_settings() {
 312:SettingsHelper.c **** OUT_FROM_MENU = 0u;
 313:SettingsHelper.c **** change_page(&menu_system[0]);
 314:SettingsHelper.c **** 
 315:SettingsHelper.c **** }
 316:SettingsHelper.c **** 
 317:SettingsHelper.c **** uint8 phone_num_buffer[9];
 318:SettingsHelper.c **** int phone_num_buffer_ind = 0;
 319:SettingsHelper.c **** 
 320:SettingsHelper.c **** int8 read_phone_num(uint8 pressed) {
 321:SettingsHelper.c **** 
 322:SettingsHelper.c ****     if (pressed == '*')
 323:SettingsHelper.c ****         return -2;
 324:SettingsHelper.c ****     
 325:SettingsHelper.c ****    if (pressed == '#'){
 326:SettingsHelper.c ****         if (phone_num_buffer_ind == 0)
ARM GAS  C:\Users\David\AppData\Local\Temp\ccJPkTSt.s 			page 18


 327:SettingsHelper.c ****             return -1;
 328:SettingsHelper.c ****         phone_num_buffer_ind = 0;
 329:SettingsHelper.c ****         return 1;
 330:SettingsHelper.c ****     } 
 331:SettingsHelper.c **** 
 332:SettingsHelper.c ****     if (pressed == 0 || pressed == 'A' || pressed == 'B' || pressed == 'C' || pressed == 'D' || pho
 333:SettingsHelper.c ****         return -1;
 334:SettingsHelper.c ****     }         
 335:SettingsHelper.c ****     phone_num_buffer[phone_num_buffer_ind++] = pressed;
 336:SettingsHelper.c ****     printChar(pressed);
 337:SettingsHelper.c ****         
 338:SettingsHelper.c ****     return -1;      
 339:SettingsHelper.c ****     
 340:SettingsHelper.c **** }
 341:SettingsHelper.c **** 
 342:SettingsHelper.c **** void edit_phone_number() {
 343:SettingsHelper.c ****     int8 res = read_phone_num(get_pressed_key());
 344:SettingsHelper.c ****    if (res == 1) {
 345:SettingsHelper.c ****         StoreInt8ArrayToRow(phone_num_buffer, PHONE_NUM_1_ADDR);
 346:SettingsHelper.c ****         init_phone_num();
 347:SettingsHelper.c ****         change_page(&menu_system[0]);
 348:SettingsHelper.c ****         return;
 349:SettingsHelper.c ****     }
 350:SettingsHelper.c ****     else if (res == -2) {
 351:SettingsHelper.c ****          phone_num_buffer_ind = 0;
 352:SettingsHelper.c ****          change_page(&menu_system[0]);
 353:SettingsHelper.c ****     } 
 354:SettingsHelper.c **** 
 355:SettingsHelper.c **** }
 356:SettingsHelper.c **** 
 357:SettingsHelper.c **** 
 358:SettingsHelper.c **** 
 359:SettingsHelper.c **** 
 360:SettingsHelper.c **** //{"A: Param. B: Kod","C: Tel. *: Ki"}
 361:SettingsHelper.c **** void handle_main_menu_page() {
 625              		.loc 1 361 0
 626              		.cfi_startproc
 627              		@ args = 0, pretend = 0, frame = 0
 628              		@ frame_needed = 0, uses_anonymous_args = 0
 629 0000 10B5     		push	{r4, lr}
 630              		.cfi_def_cfa_offset 8
 631              		.cfi_offset 4, -8
 632              		.cfi_offset 14, -4
 362:SettingsHelper.c ****     uint8 pressed = get_pressed_key();
 633              		.loc 1 362 0
 634 0002 FFF7FEFF 		bl	get_pressed_key
 635              	.LVL84:
 363:SettingsHelper.c ****     if (pressed == 'A') {
 636              		.loc 1 363 0
 637 0006 4128     		cmp	r0, #65
 638 0008 03D1     		bne	.L60
 364:SettingsHelper.c ****         change_page(&menu_system[1]); //Param
 639              		.loc 1 364 0
 640 000a 1248     		ldr	r0, .L65
 641              	.LVL85:
 642 000c FFF7FEFF 		bl	change_page
 643              	.LVL86:
ARM GAS  C:\Users\David\AppData\Local\Temp\ccJPkTSt.s 			page 19


 644 0010 10BD     		pop	{r4, pc}
 645              	.LVL87:
 646              	.L60:
 365:SettingsHelper.c ****     }
 366:SettingsHelper.c ****     else if (pressed == 'B') {
 647              		.loc 1 366 0
 648 0012 4228     		cmp	r0, #66
 649 0014 03D1     		bne	.L62
 367:SettingsHelper.c ****         change_page(&menu_system[11]); //Kod valoztatas
 650              		.loc 1 367 0
 651 0016 1048     		ldr	r0, .L65+4
 652              	.LVL88:
 653 0018 FFF7FEFF 		bl	change_page
 654              	.LVL89:
 655 001c 10BD     		pop	{r4, pc}
 656              	.LVL90:
 657              	.L62:
 368:SettingsHelper.c ****     }
 369:SettingsHelper.c ****     else if (pressed == 'C') {
 658              		.loc 1 369 0
 659 001e 4328     		cmp	r0, #67
 660 0020 12D1     		bne	.L63
 661              	.LBB12:
 370:SettingsHelper.c ****         actual_eeprom_addr = PHONE_NUM_1_ADDR;
 662              		.loc 1 370 0
 663 0022 0E4C     		ldr	r4, .L65+8
 664 0024 3023     		movs	r3, #48
 665 0026 84F8AC30 		strb	r3, [r4, #172]
 371:SettingsHelper.c ****         sprintf(variable_to_be_displayed, "%s #/*", PHONE_NUM);
 666              		.loc 1 371 0
 667 002a 04F1B002 		add	r2, r4, #176
 668 002e 0C49     		ldr	r1, .L65+12
 669 0030 0C48     		ldr	r0, .L65+16
 670              	.LVL91:
 671 0032 FFF7FEFF 		bl	sprintf
 672              	.LVL92:
 372:SettingsHelper.c ****         LCD_Position(4u, 0u);
 673              		.loc 1 372 0
 674 0036 0021     		movs	r1, #0
 675 0038 0420     		movs	r0, #4
 676 003a FFF7FEFF 		bl	LCD_Position
 677              	.LVL93:
 373:SettingsHelper.c ****         change_page(&menu_system[13]); //Tel. szam
 678              		.loc 1 373 0
 679 003e 04F1A000 		add	r0, r4, #160
 680 0042 FFF7FEFF 		bl	change_page
 681              	.LVL94:
 682              	.LBE12:
 683 0046 10BD     		pop	{r4, pc}
 684              	.LVL95:
 685              	.L63:
 374:SettingsHelper.c ****     }
 375:SettingsHelper.c ****     else if (pressed == '*') {
 686              		.loc 1 375 0
 687 0048 2A28     		cmp	r0, #42
 688 004a 02D1     		bne	.L59
 376:SettingsHelper.c ****        OUT_FROM_MENU = 1u;
ARM GAS  C:\Users\David\AppData\Local\Temp\ccJPkTSt.s 			page 20


 689              		.loc 1 376 0
 690 004c 0122     		movs	r2, #1
 691 004e 064B     		ldr	r3, .L65+20
 692 0050 DA70     		strb	r2, [r3, #3]
 693              	.L59:
 694 0052 10BD     		pop	{r4, pc}
 695              	.L66:
 696              		.align	2
 697              	.L65:
 698 0054 10000000 		.word	.LANCHOR1+16
 699 0058 88000000 		.word	.LANCHOR1+136
 700 005c 00000000 		.word	.LANCHOR1
 701 0060 10000000 		.word	.LC2
 702 0064 00000000 		.word	variable_to_be_displayed
 703 0068 00000000 		.word	.LANCHOR0
 704              		.cfi_endproc
 705              	.LFE83:
 706              		.size	handle_main_menu_page, .-handle_main_menu_page
 707              		.section	.text.choose_param_page1,"ax",%progbits
 708              		.align	2
 709              		.global	choose_param_page1
 710              		.thumb
 711              		.thumb_func
 712              		.type	choose_param_page1, %function
 713              	choose_param_page1:
 714              	.LFB84:
 377:SettingsHelper.c ****     }
 378:SettingsHelper.c **** }
 379:SettingsHelper.c **** 
 380:SettingsHelper.c **** //{"A: Elesitesi ido","#:<- D:-> *: Ki"}
 381:SettingsHelper.c **** void choose_param_page1() {
 715              		.loc 1 381 0
 716              		.cfi_startproc
 717              		@ args = 0, pretend = 0, frame = 0
 718              		@ frame_needed = 0, uses_anonymous_args = 0
 719 0000 10B5     		push	{r4, lr}
 720              		.cfi_def_cfa_offset 8
 721              		.cfi_offset 4, -8
 722              		.cfi_offset 14, -4
 382:SettingsHelper.c ****     uint8 pressed = get_pressed_key();
 723              		.loc 1 382 0
 724 0002 FFF7FEFF 		bl	get_pressed_key
 725              	.LVL96:
 383:SettingsHelper.c ****     
 384:SettingsHelper.c ****     if (pressed == 'A') {        
 726              		.loc 1 384 0
 727 0006 4128     		cmp	r0, #65
 728 0008 13D1     		bne	.L68
 729              	.LBB13:
 385:SettingsHelper.c ****         actual_eeprom_addr = WATCH_DELAY_ADDR;
 730              		.loc 1 385 0
 731 000a 134C     		ldr	r4, .L73
 732 000c 0820     		movs	r0, #8
 733              	.LVL97:
 734 000e 84F8AC00 		strb	r0, [r4, #172]
 386:SettingsHelper.c ****         uint16 current_watch_time = ReadInt16(actual_eeprom_addr);
 735              		.loc 1 386 0
ARM GAS  C:\Users\David\AppData\Local\Temp\ccJPkTSt.s 			page 21


 736 0012 FFF7FEFF 		bl	ReadInt16
 737              	.LVL98:
 387:SettingsHelper.c ****         sprintf(variable_to_be_displayed, "%d s #:Ok *:X", current_watch_time);
 738              		.loc 1 387 0
 739 0016 0246     		mov	r2, r0
 740 0018 1049     		ldr	r1, .L73+4
 741 001a 1148     		ldr	r0, .L73+8
 742              	.LVL99:
 743 001c FFF7FEFF 		bl	sprintf
 744              	.LVL100:
 388:SettingsHelper.c ****         LCD_Position(1u, 4u);
 745              		.loc 1 388 0
 746 0020 0421     		movs	r1, #4
 747 0022 0120     		movs	r0, #1
 748 0024 FFF7FEFF 		bl	LCD_Position
 749              	.LVL101:
 389:SettingsHelper.c ****         change_page(&menu_system[8]);
 750              		.loc 1 389 0
 751 0028 04F16400 		add	r0, r4, #100
 752 002c FFF7FEFF 		bl	change_page
 753              	.LVL102:
 754              	.LBE13:
 755 0030 10BD     		pop	{r4, pc}
 756              	.LVL103:
 757              	.L68:
 390:SettingsHelper.c ****     }
 391:SettingsHelper.c ****     else if (pressed == '1') {
 758              		.loc 1 391 0
 759 0032 3128     		cmp	r0, #49
 760 0034 03D1     		bne	.L70
 392:SettingsHelper.c ****        change_page(&menu_system[7]); 
 761              		.loc 1 392 0
 762 0036 0B48     		ldr	r0, .L73+12
 763              	.LVL104:
 764 0038 FFF7FEFF 		bl	change_page
 765              	.LVL105:
 766 003c 10BD     		pop	{r4, pc}
 767              	.LVL106:
 768              	.L70:
 393:SettingsHelper.c ****     }
 394:SettingsHelper.c ****     else if (pressed == '2') {
 769              		.loc 1 394 0
 770 003e 3228     		cmp	r0, #50
 771 0040 03D1     		bne	.L71
 395:SettingsHelper.c ****         change_page(&menu_system[2]);
 772              		.loc 1 395 0
 773 0042 0948     		ldr	r0, .L73+16
 774              	.LVL107:
 775 0044 FFF7FEFF 		bl	change_page
 776              	.LVL108:
 777 0048 10BD     		pop	{r4, pc}
 778              	.LVL109:
 779              	.L71:
 396:SettingsHelper.c ****     
 397:SettingsHelper.c ****     }else if (pressed == '*') {
 780              		.loc 1 397 0
 781 004a 2A28     		cmp	r0, #42
ARM GAS  C:\Users\David\AppData\Local\Temp\ccJPkTSt.s 			page 22


 782 004c 02D1     		bne	.L67
 398:SettingsHelper.c ****         change_page(&menu_system[0]);
 783              		.loc 1 398 0
 784 004e 0748     		ldr	r0, .L73+20
 785              	.LVL110:
 786 0050 FFF7FEFF 		bl	change_page
 787              	.LVL111:
 788              	.L67:
 789 0054 10BD     		pop	{r4, pc}
 790              	.L74:
 791 0056 00BF     		.align	2
 792              	.L73:
 793 0058 00000000 		.word	.LANCHOR1
 794 005c 18000000 		.word	.LC3
 795 0060 00000000 		.word	variable_to_be_displayed
 796 0064 58000000 		.word	.LANCHOR1+88
 797 0068 1C000000 		.word	.LANCHOR1+28
 798 006c 04000000 		.word	.LANCHOR1+4
 799              		.cfi_endproc
 800              	.LFE84:
 801              		.size	choose_param_page1, .-choose_param_page1
 802              		.section	.text.choose_param_page2,"ax",%progbits
 803              		.align	2
 804              		.global	choose_param_page2
 805              		.thumb
 806              		.thumb_func
 807              		.type	choose_param_page2, %function
 808              	choose_param_page2:
 809              	.LFB85:
 399:SettingsHelper.c ****     }
 400:SettingsHelper.c **** }
 401:SettingsHelper.c **** 
 402:SettingsHelper.c **** //{"A:Csipog. hossza","1:<- 2:-> *: Ki"}
 403:SettingsHelper.c **** void choose_param_page2() {
 810              		.loc 1 403 0
 811              		.cfi_startproc
 812              		@ args = 0, pretend = 0, frame = 0
 813              		@ frame_needed = 0, uses_anonymous_args = 0
 814 0000 10B5     		push	{r4, lr}
 815              		.cfi_def_cfa_offset 8
 816              		.cfi_offset 4, -8
 817              		.cfi_offset 14, -4
 404:SettingsHelper.c ****     uint8 pressed = get_pressed_key();
 818              		.loc 1 404 0
 819 0002 FFF7FEFF 		bl	get_pressed_key
 820              	.LVL112:
 405:SettingsHelper.c ****     
 406:SettingsHelper.c ****     if (pressed == 'A') {        
 821              		.loc 1 406 0
 822 0006 4128     		cmp	r0, #65
 823 0008 13D1     		bne	.L76
 824              	.LBB14:
 407:SettingsHelper.c ****         actual_eeprom_addr = BEEP_LENGTH_ADDR;
 825              		.loc 1 407 0
 826 000a 134C     		ldr	r4, .L81
 827 000c 0620     		movs	r0, #6
 828              	.LVL113:
ARM GAS  C:\Users\David\AppData\Local\Temp\ccJPkTSt.s 			page 23


 829 000e 84F8AC00 		strb	r0, [r4, #172]
 408:SettingsHelper.c ****         uint16 beep_len = ReadInt16(actual_eeprom_addr);
 830              		.loc 1 408 0
 831 0012 FFF7FEFF 		bl	ReadInt16
 832              	.LVL114:
 409:SettingsHelper.c ****         sprintf(variable_to_be_displayed, "%d s #:Ok *:X", beep_len);
 833              		.loc 1 409 0
 834 0016 0246     		mov	r2, r0
 835 0018 1049     		ldr	r1, .L81+4
 836 001a 1148     		ldr	r0, .L81+8
 837              	.LVL115:
 838 001c FFF7FEFF 		bl	sprintf
 839              	.LVL116:
 410:SettingsHelper.c ****         LCD_Position(1u, 4u);
 840              		.loc 1 410 0
 841 0020 0421     		movs	r1, #4
 842 0022 0120     		movs	r0, #1
 843 0024 FFF7FEFF 		bl	LCD_Position
 844              	.LVL117:
 411:SettingsHelper.c ****         change_page(&menu_system[8]);
 845              		.loc 1 411 0
 846 0028 04F16400 		add	r0, r4, #100
 847 002c FFF7FEFF 		bl	change_page
 848              	.LVL118:
 849              	.LBE14:
 850 0030 10BD     		pop	{r4, pc}
 851              	.LVL119:
 852              	.L76:
 412:SettingsHelper.c ****     }
 413:SettingsHelper.c ****     else if (pressed == '1') {
 853              		.loc 1 413 0
 854 0032 3128     		cmp	r0, #49
 855 0034 03D1     		bne	.L78
 414:SettingsHelper.c ****        change_page(&menu_system[1]); 
 856              		.loc 1 414 0
 857 0036 0B48     		ldr	r0, .L81+12
 858              	.LVL120:
 859 0038 FFF7FEFF 		bl	change_page
 860              	.LVL121:
 861 003c 10BD     		pop	{r4, pc}
 862              	.LVL122:
 863              	.L78:
 415:SettingsHelper.c ****     }
 416:SettingsHelper.c ****     else if (pressed == '2') {
 864              		.loc 1 416 0
 865 003e 3228     		cmp	r0, #50
 866 0040 03D1     		bne	.L79
 417:SettingsHelper.c ****         change_page(&menu_system[3]);
 867              		.loc 1 417 0
 868 0042 0948     		ldr	r0, .L81+16
 869              	.LVL123:
 870 0044 FFF7FEFF 		bl	change_page
 871              	.LVL124:
 872 0048 10BD     		pop	{r4, pc}
 873              	.LVL125:
 874              	.L79:
 418:SettingsHelper.c ****     
ARM GAS  C:\Users\David\AppData\Local\Temp\ccJPkTSt.s 			page 24


 419:SettingsHelper.c ****     }else if (pressed == '*') {
 875              		.loc 1 419 0
 876 004a 2A28     		cmp	r0, #42
 877 004c 02D1     		bne	.L75
 420:SettingsHelper.c ****         change_page(&menu_system[0]);
 878              		.loc 1 420 0
 879 004e 0748     		ldr	r0, .L81+20
 880              	.LVL126:
 881 0050 FFF7FEFF 		bl	change_page
 882              	.LVL127:
 883              	.L75:
 884 0054 10BD     		pop	{r4, pc}
 885              	.L82:
 886 0056 00BF     		.align	2
 887              	.L81:
 888 0058 00000000 		.word	.LANCHOR1
 889 005c 18000000 		.word	.LC3
 890 0060 00000000 		.word	variable_to_be_displayed
 891 0064 10000000 		.word	.LANCHOR1+16
 892 0068 28000000 		.word	.LANCHOR1+40
 893 006c 04000000 		.word	.LANCHOR1+4
 894              		.cfi_endproc
 895              	.LFE85:
 896              		.size	choose_param_page2, .-choose_param_page2
 897              		.section	.text.choose_param_page3,"ax",%progbits
 898              		.align	2
 899              		.global	choose_param_page3
 900              		.thumb
 901              		.thumb_func
 902              		.type	choose_param_page3, %function
 903              	choose_param_page3:
 904              	.LFB86:
 421:SettingsHelper.c ****     }
 422:SettingsHelper.c **** }
 423:SettingsHelper.c **** 
 424:SettingsHelper.c **** //{"A:Auto. bekapcs.","1:<- 2:-> *: Ki"}
 425:SettingsHelper.c **** void choose_param_page3() {
 905              		.loc 1 425 0
 906              		.cfi_startproc
 907              		@ args = 0, pretend = 0, frame = 0
 908              		@ frame_needed = 0, uses_anonymous_args = 0
 909 0000 08B5     		push	{r3, lr}
 910              		.cfi_def_cfa_offset 8
 911              		.cfi_offset 3, -8
 912              		.cfi_offset 14, -4
 426:SettingsHelper.c ****     uint8 pressed = get_pressed_key();
 913              		.loc 1 426 0
 914 0002 FFF7FEFF 		bl	get_pressed_key
 915              	.LVL128:
 427:SettingsHelper.c ****     
 428:SettingsHelper.c ****     if (pressed == 'A') {        
 916              		.loc 1 428 0
 917 0006 4128     		cmp	r0, #65
 918 0008 1AD1     		bne	.L84
 919              	.LBB15:
 429:SettingsHelper.c ****         actual_eeprom_addr = AUTO_WATCH_ACTIVATED_ADDR;
 920              		.loc 1 429 0
ARM GAS  C:\Users\David\AppData\Local\Temp\ccJPkTSt.s 			page 25


 921 000a 0220     		movs	r0, #2
 922              	.LVL129:
 923 000c 154B     		ldr	r3, .L91
 924 000e 83F8AC00 		strb	r0, [r3, #172]
 430:SettingsHelper.c ****         uint8 stat_now = ReadInt8(actual_eeprom_addr);
 925              		.loc 1 430 0
 926 0012 FFF7FEFF 		bl	ReadInt8
 927              	.LVL130:
 431:SettingsHelper.c ****         sprintf(variable_to_be_displayed, "%s van kapcsolva", stat_now == 1 ? "BE" : "KI");
 928              		.loc 1 431 0
 929 0016 0128     		cmp	r0, #1
 930 0018 01D1     		bne	.L89
 931 001a 134A     		ldr	r2, .L91+4
 932 001c 00E0     		b	.L85
 933              	.L89:
 934 001e 134A     		ldr	r2, .L91+8
 935              	.L85:
 936              		.loc 1 431 0 is_stmt 0 discriminator 4
 937 0020 1349     		ldr	r1, .L91+12
 938 0022 1448     		ldr	r0, .L91+16
 939              	.LVL131:
 940 0024 FFF7FEFF 		bl	sprintf
 941              	.LVL132:
 432:SettingsHelper.c ****         LCD_Position(1u, 4u);
 942              		.loc 1 432 0 is_stmt 1 discriminator 4
 943 0028 0421     		movs	r1, #4
 944 002a 0120     		movs	r0, #1
 945 002c FFF7FEFF 		bl	LCD_Position
 946              	.LVL133:
 433:SettingsHelper.c ****         menu_system[10].page.line2 = "1: Be 0: Ki *:X";
 947              		.loc 1 433 0 discriminator 4
 948 0030 0C48     		ldr	r0, .L91
 949 0032 114B     		ldr	r3, .L91+20
 950 0034 C0F88030 		str	r3, [r0, #128]
 434:SettingsHelper.c ****         change_page(&menu_system[10]);
 951              		.loc 1 434 0 discriminator 4
 952 0038 7C30     		adds	r0, r0, #124
 953 003a FFF7FEFF 		bl	change_page
 954              	.LVL134:
 955              	.LBE15:
 956 003e 08BD     		pop	{r3, pc}
 957              	.LVL135:
 958              	.L84:
 435:SettingsHelper.c ****     }
 436:SettingsHelper.c ****     else if (pressed == '1') {
 959              		.loc 1 436 0
 960 0040 3128     		cmp	r0, #49
 961 0042 03D1     		bne	.L87
 437:SettingsHelper.c ****        change_page(&menu_system[2]); 
 962              		.loc 1 437 0
 963 0044 0D48     		ldr	r0, .L91+24
 964              	.LVL136:
 965 0046 FFF7FEFF 		bl	change_page
 966              	.LVL137:
 967 004a 08BD     		pop	{r3, pc}
 968              	.LVL138:
 969              	.L87:
ARM GAS  C:\Users\David\AppData\Local\Temp\ccJPkTSt.s 			page 26


 438:SettingsHelper.c ****     }
 439:SettingsHelper.c ****     else if (pressed == '2') {
 970              		.loc 1 439 0
 971 004c 3228     		cmp	r0, #50
 972 004e 03D1     		bne	.L88
 440:SettingsHelper.c ****         change_page(&menu_system[4]);
 973              		.loc 1 440 0
 974 0050 0B48     		ldr	r0, .L91+28
 975              	.LVL139:
 976 0052 FFF7FEFF 		bl	change_page
 977              	.LVL140:
 978 0056 08BD     		pop	{r3, pc}
 979              	.LVL141:
 980              	.L88:
 441:SettingsHelper.c ****     
 442:SettingsHelper.c ****     }else if (pressed == '*') {
 981              		.loc 1 442 0
 982 0058 2A28     		cmp	r0, #42
 983 005a 02D1     		bne	.L83
 443:SettingsHelper.c ****         change_page(&menu_system[0]);
 984              		.loc 1 443 0
 985 005c 0948     		ldr	r0, .L91+32
 986              	.LVL142:
 987 005e FFF7FEFF 		bl	change_page
 988              	.LVL143:
 989              	.L83:
 990 0062 08BD     		pop	{r3, pc}
 991              	.L92:
 992              		.align	2
 993              	.L91:
 994 0064 00000000 		.word	.LANCHOR1
 995 0068 28000000 		.word	.LC4
 996 006c 2C000000 		.word	.LC5
 997 0070 30000000 		.word	.LC6
 998 0074 00000000 		.word	variable_to_be_displayed
 999 0078 44000000 		.word	.LC7
 1000 007c 1C000000 		.word	.LANCHOR1+28
 1001 0080 34000000 		.word	.LANCHOR1+52
 1002 0084 04000000 		.word	.LANCHOR1+4
 1003              		.cfi_endproc
 1004              	.LFE86:
 1005              		.size	choose_param_page3, .-choose_param_page3
 1006              		.section	.text.choose_param_page4,"ax",%progbits
 1007              		.align	2
 1008              		.global	choose_param_page4
 1009              		.thumb
 1010              		.thumb_func
 1011              		.type	choose_param_page4, %function
 1012              	choose_param_page4:
 1013              	.LFB87:
 444:SettingsHelper.c ****     }
 445:SettingsHelper.c **** }
 446:SettingsHelper.c **** 
 447:SettingsHelper.c **** //{"A:Deakt. ido","1:<- 2:-> *: Ki"}
 448:SettingsHelper.c **** void choose_param_page4() {
 1014              		.loc 1 448 0
 1015              		.cfi_startproc
ARM GAS  C:\Users\David\AppData\Local\Temp\ccJPkTSt.s 			page 27


 1016              		@ args = 0, pretend = 0, frame = 0
 1017              		@ frame_needed = 0, uses_anonymous_args = 0
 1018 0000 10B5     		push	{r4, lr}
 1019              		.cfi_def_cfa_offset 8
 1020              		.cfi_offset 4, -8
 1021              		.cfi_offset 14, -4
 449:SettingsHelper.c ****     uint8 pressed = get_pressed_key();
 1022              		.loc 1 449 0
 1023 0002 FFF7FEFF 		bl	get_pressed_key
 1024              	.LVL144:
 450:SettingsHelper.c ****     
 451:SettingsHelper.c ****     if (pressed == 'A') {        
 1025              		.loc 1 451 0
 1026 0006 4128     		cmp	r0, #65
 1027 0008 13D1     		bne	.L94
 1028              	.LBB16:
 452:SettingsHelper.c ****         actual_eeprom_addr = DEACT_DELAY_ADDR;
 1029              		.loc 1 452 0
 1030 000a 134C     		ldr	r4, .L99
 1031 000c 0A20     		movs	r0, #10
 1032              	.LVL145:
 1033 000e 84F8AC00 		strb	r0, [r4, #172]
 453:SettingsHelper.c ****         uint16 deact_delay = ReadInt16(actual_eeprom_addr);
 1034              		.loc 1 453 0
 1035 0012 FFF7FEFF 		bl	ReadInt16
 1036              	.LVL146:
 454:SettingsHelper.c ****         sprintf(variable_to_be_displayed, "%d s #:Ok *:X", deact_delay);
 1037              		.loc 1 454 0
 1038 0016 0246     		mov	r2, r0
 1039 0018 1049     		ldr	r1, .L99+4
 1040 001a 1148     		ldr	r0, .L99+8
 1041              	.LVL147:
 1042 001c FFF7FEFF 		bl	sprintf
 1043              	.LVL148:
 455:SettingsHelper.c ****         LCD_Position(1u, 4u);
 1044              		.loc 1 455 0
 1045 0020 0421     		movs	r1, #4
 1046 0022 0120     		movs	r0, #1
 1047 0024 FFF7FEFF 		bl	LCD_Position
 1048              	.LVL149:
 456:SettingsHelper.c ****         change_page(&menu_system[8]);
 1049              		.loc 1 456 0
 1050 0028 04F16400 		add	r0, r4, #100
 1051 002c FFF7FEFF 		bl	change_page
 1052              	.LVL150:
 1053              	.LBE16:
 1054 0030 10BD     		pop	{r4, pc}
 1055              	.LVL151:
 1056              	.L94:
 457:SettingsHelper.c ****     }
 458:SettingsHelper.c ****     else if (pressed == '1') {
 1057              		.loc 1 458 0
 1058 0032 3128     		cmp	r0, #49
 1059 0034 03D1     		bne	.L96
 459:SettingsHelper.c ****        change_page(&menu_system[3]); 
 1060              		.loc 1 459 0
 1061 0036 0B48     		ldr	r0, .L99+12
ARM GAS  C:\Users\David\AppData\Local\Temp\ccJPkTSt.s 			page 28


 1062              	.LVL152:
 1063 0038 FFF7FEFF 		bl	change_page
 1064              	.LVL153:
 1065 003c 10BD     		pop	{r4, pc}
 1066              	.LVL154:
 1067              	.L96:
 460:SettingsHelper.c ****     }
 461:SettingsHelper.c ****     else if (pressed == '2') {
 1068              		.loc 1 461 0
 1069 003e 3228     		cmp	r0, #50
 1070 0040 03D1     		bne	.L97
 462:SettingsHelper.c ****         change_page(&menu_system[5]);
 1071              		.loc 1 462 0
 1072 0042 0948     		ldr	r0, .L99+16
 1073              	.LVL155:
 1074 0044 FFF7FEFF 		bl	change_page
 1075              	.LVL156:
 1076 0048 10BD     		pop	{r4, pc}
 1077              	.LVL157:
 1078              	.L97:
 463:SettingsHelper.c ****     
 464:SettingsHelper.c ****     }else if (pressed == '*') {
 1079              		.loc 1 464 0
 1080 004a 2A28     		cmp	r0, #42
 1081 004c 02D1     		bne	.L93
 465:SettingsHelper.c ****         change_page(&menu_system[0]);
 1082              		.loc 1 465 0
 1083 004e 0748     		ldr	r0, .L99+20
 1084              	.LVL158:
 1085 0050 FFF7FEFF 		bl	change_page
 1086              	.LVL159:
 1087              	.L93:
 1088 0054 10BD     		pop	{r4, pc}
 1089              	.L100:
 1090 0056 00BF     		.align	2
 1091              	.L99:
 1092 0058 00000000 		.word	.LANCHOR1
 1093 005c 18000000 		.word	.LC3
 1094 0060 00000000 		.word	variable_to_be_displayed
 1095 0064 28000000 		.word	.LANCHOR1+40
 1096 0068 40000000 		.word	.LANCHOR1+64
 1097 006c 04000000 		.word	.LANCHOR1+4
 1098              		.cfi_endproc
 1099              	.LFE87:
 1100              		.size	choose_param_page4, .-choose_param_page4
 1101              		.section	.text.choose_param_page5,"ax",%progbits
 1102              		.align	2
 1103              		.global	choose_param_page5
 1104              		.thumb
 1105              		.thumb_func
 1106              		.type	choose_param_page5, %function
 1107              	choose_param_page5:
 1108              	.LFB88:
 466:SettingsHelper.c ****     }
 467:SettingsHelper.c **** }
 468:SettingsHelper.c **** 
 469:SettingsHelper.c **** //{"A:Ejszaka kezd.","1:<- 2:-> *: Ki"}
ARM GAS  C:\Users\David\AppData\Local\Temp\ccJPkTSt.s 			page 29


 470:SettingsHelper.c **** void choose_param_page5() {
 1109              		.loc 1 470 0
 1110              		.cfi_startproc
 1111              		@ args = 0, pretend = 0, frame = 0
 1112              		@ frame_needed = 0, uses_anonymous_args = 0
 1113 0000 10B5     		push	{r4, lr}
 1114              		.cfi_def_cfa_offset 8
 1115              		.cfi_offset 4, -8
 1116              		.cfi_offset 14, -4
 471:SettingsHelper.c ****     uint8 pressed = get_pressed_key();
 1117              		.loc 1 471 0
 1118 0002 FFF7FEFF 		bl	get_pressed_key
 1119              	.LVL160:
 472:SettingsHelper.c ****     
 473:SettingsHelper.c ****     if (pressed == 'A') {        
 1120              		.loc 1 473 0
 1121 0006 4128     		cmp	r0, #65
 1122 0008 15D1     		bne	.L102
 1123              	.LBB17:
 474:SettingsHelper.c ****         actual_eeprom_addr = NIGHT_FROM_ADDR;
 1124              		.loc 1 474 0
 1125 000a 144C     		ldr	r4, .L107
 1126 000c 0020     		movs	r0, #0
 1127              	.LVL161:
 1128 000e 84F8AC00 		strb	r0, [r4, #172]
 475:SettingsHelper.c ****         uint8 night_start = ReadInt8(actual_eeprom_addr);
 1129              		.loc 1 475 0
 1130 0012 FFF7FEFF 		bl	ReadInt8
 1131              	.LVL162:
 476:SettingsHelper.c ****         sprintf(variable_to_be_displayed, "%d h #:Ok *:X", night_start);
 1132              		.loc 1 476 0
 1133 0016 0246     		mov	r2, r0
 1134 0018 1149     		ldr	r1, .L107+4
 1135 001a 1248     		ldr	r0, .L107+8
 1136              	.LVL163:
 1137 001c FFF7FEFF 		bl	sprintf
 1138              	.LVL164:
 477:SettingsHelper.c ****         LCD_Position(1u, 4u);
 1139              		.loc 1 477 0
 1140 0020 0421     		movs	r1, #4
 1141 0022 0120     		movs	r0, #1
 1142 0024 FFF7FEFF 		bl	LCD_Position
 1143              	.LVL165:
 478:SettingsHelper.c ****         menu_system[9].page.line2 = "Uj (0-24):";
 1144              		.loc 1 478 0
 1145 0028 0F4B     		ldr	r3, .L107+12
 1146 002a 6367     		str	r3, [r4, #116]
 479:SettingsHelper.c ****         change_page(&menu_system[9]);
 1147              		.loc 1 479 0
 1148 002c 04F17000 		add	r0, r4, #112
 1149 0030 FFF7FEFF 		bl	change_page
 1150              	.LVL166:
 1151              	.LBE17:
 1152 0034 10BD     		pop	{r4, pc}
 1153              	.LVL167:
 1154              	.L102:
 480:SettingsHelper.c ****     }
ARM GAS  C:\Users\David\AppData\Local\Temp\ccJPkTSt.s 			page 30


 481:SettingsHelper.c ****     else if (pressed == '1') {
 1155              		.loc 1 481 0
 1156 0036 3128     		cmp	r0, #49
 1157 0038 03D1     		bne	.L104
 482:SettingsHelper.c ****        change_page(&menu_system[4]); 
 1158              		.loc 1 482 0
 1159 003a 0C48     		ldr	r0, .L107+16
 1160              	.LVL168:
 1161 003c FFF7FEFF 		bl	change_page
 1162              	.LVL169:
 1163 0040 10BD     		pop	{r4, pc}
 1164              	.LVL170:
 1165              	.L104:
 483:SettingsHelper.c ****     }
 484:SettingsHelper.c ****     else if (pressed == '2') {
 1166              		.loc 1 484 0
 1167 0042 3228     		cmp	r0, #50
 1168 0044 03D1     		bne	.L105
 485:SettingsHelper.c ****         change_page(&menu_system[6]);
 1169              		.loc 1 485 0
 1170 0046 0A48     		ldr	r0, .L107+20
 1171              	.LVL171:
 1172 0048 FFF7FEFF 		bl	change_page
 1173              	.LVL172:
 1174 004c 10BD     		pop	{r4, pc}
 1175              	.LVL173:
 1176              	.L105:
 486:SettingsHelper.c ****     
 487:SettingsHelper.c ****     }else if (pressed == '*') {
 1177              		.loc 1 487 0
 1178 004e 2A28     		cmp	r0, #42
 1179 0050 02D1     		bne	.L101
 488:SettingsHelper.c ****         change_page(&menu_system[0]);
 1180              		.loc 1 488 0
 1181 0052 0848     		ldr	r0, .L107+24
 1182              	.LVL174:
 1183 0054 FFF7FEFF 		bl	change_page
 1184              	.LVL175:
 1185              	.L101:
 1186 0058 10BD     		pop	{r4, pc}
 1187              	.L108:
 1188 005a 00BF     		.align	2
 1189              	.L107:
 1190 005c 00000000 		.word	.LANCHOR1
 1191 0060 54000000 		.word	.LC8
 1192 0064 00000000 		.word	variable_to_be_displayed
 1193 0068 64000000 		.word	.LC9
 1194 006c 34000000 		.word	.LANCHOR1+52
 1195 0070 4C000000 		.word	.LANCHOR1+76
 1196 0074 04000000 		.word	.LANCHOR1+4
 1197              		.cfi_endproc
 1198              	.LFE88:
 1199              		.size	choose_param_page5, .-choose_param_page5
 1200              		.section	.text.choose_param_page6,"ax",%progbits
 1201              		.align	2
 1202              		.global	choose_param_page6
 1203              		.thumb
ARM GAS  C:\Users\David\AppData\Local\Temp\ccJPkTSt.s 			page 31


 1204              		.thumb_func
 1205              		.type	choose_param_page6, %function
 1206              	choose_param_page6:
 1207              	.LFB89:
 489:SettingsHelper.c ****     }
 490:SettingsHelper.c **** }
 491:SettingsHelper.c **** 
 492:SettingsHelper.c **** //{"A:Ejszaka vege","1:<- 2:-> *: Ki"}
 493:SettingsHelper.c **** void choose_param_page6() {
 1208              		.loc 1 493 0
 1209              		.cfi_startproc
 1210              		@ args = 0, pretend = 0, frame = 0
 1211              		@ frame_needed = 0, uses_anonymous_args = 0
 1212 0000 38B5     		push	{r3, r4, r5, lr}
 1213              		.cfi_def_cfa_offset 16
 1214              		.cfi_offset 3, -16
 1215              		.cfi_offset 4, -12
 1216              		.cfi_offset 5, -8
 1217              		.cfi_offset 14, -4
 494:SettingsHelper.c ****     uint8 pressed = get_pressed_key();
 1218              		.loc 1 494 0
 1219 0002 FFF7FEFF 		bl	get_pressed_key
 1220              	.LVL176:
 495:SettingsHelper.c ****     
 496:SettingsHelper.c ****     if (pressed == 'A') {        
 1221              		.loc 1 496 0
 1222 0006 4128     		cmp	r0, #65
 1223 0008 16D1     		bne	.L110
 1224              	.LBB18:
 497:SettingsHelper.c ****         actual_eeprom_addr = NIGHT_UNITL_ADDR;
 1225              		.loc 1 497 0
 1226 000a 144C     		ldr	r4, .L115
 1227 000c 0125     		movs	r5, #1
 1228 000e 84F8AC50 		strb	r5, [r4, #172]
 498:SettingsHelper.c ****         uint16 night_to = ReadInt8(actual_eeprom_addr);
 1229              		.loc 1 498 0
 1230 0012 2846     		mov	r0, r5
 1231              	.LVL177:
 1232 0014 FFF7FEFF 		bl	ReadInt8
 1233              	.LVL178:
 499:SettingsHelper.c ****         sprintf(variable_to_be_displayed, "%d h #:Ok *:X", night_to);
 1234              		.loc 1 499 0
 1235 0018 0246     		mov	r2, r0
 1236 001a 1149     		ldr	r1, .L115+4
 1237 001c 1148     		ldr	r0, .L115+8
 1238              	.LVL179:
 1239 001e FFF7FEFF 		bl	sprintf
 1240              	.LVL180:
 500:SettingsHelper.c ****         LCD_Position(1u, 4u);
 1241              		.loc 1 500 0
 1242 0022 0421     		movs	r1, #4
 1243 0024 2846     		mov	r0, r5
 1244 0026 FFF7FEFF 		bl	LCD_Position
 1245              	.LVL181:
 501:SettingsHelper.c ****         menu_system[9].page.line2 = "Uj (0-24):";
 1246              		.loc 1 501 0
 1247 002a 0F4B     		ldr	r3, .L115+12
ARM GAS  C:\Users\David\AppData\Local\Temp\ccJPkTSt.s 			page 32


 1248 002c 6367     		str	r3, [r4, #116]
 502:SettingsHelper.c ****         change_page(&menu_system[9]);
 1249              		.loc 1 502 0
 1250 002e 04F17000 		add	r0, r4, #112
 1251 0032 FFF7FEFF 		bl	change_page
 1252              	.LVL182:
 1253              	.LBE18:
 1254 0036 38BD     		pop	{r3, r4, r5, pc}
 1255              	.LVL183:
 1256              	.L110:
 503:SettingsHelper.c ****     }
 504:SettingsHelper.c ****     else if (pressed == '1') {
 1257              		.loc 1 504 0
 1258 0038 3128     		cmp	r0, #49
 1259 003a 03D1     		bne	.L112
 505:SettingsHelper.c ****        change_page(&menu_system[5]); 
 1260              		.loc 1 505 0
 1261 003c 0B48     		ldr	r0, .L115+16
 1262              	.LVL184:
 1263 003e FFF7FEFF 		bl	change_page
 1264              	.LVL185:
 1265 0042 38BD     		pop	{r3, r4, r5, pc}
 1266              	.LVL186:
 1267              	.L112:
 506:SettingsHelper.c ****     }
 507:SettingsHelper.c ****     else if (pressed == '2') {
 1268              		.loc 1 507 0
 1269 0044 3228     		cmp	r0, #50
 1270 0046 03D1     		bne	.L113
 508:SettingsHelper.c ****         change_page(&menu_system[7]);
 1271              		.loc 1 508 0
 1272 0048 0948     		ldr	r0, .L115+20
 1273              	.LVL187:
 1274 004a FFF7FEFF 		bl	change_page
 1275              	.LVL188:
 1276 004e 38BD     		pop	{r3, r4, r5, pc}
 1277              	.LVL189:
 1278              	.L113:
 509:SettingsHelper.c ****     
 510:SettingsHelper.c ****     }else if (pressed == '*') {
 1279              		.loc 1 510 0
 1280 0050 2A28     		cmp	r0, #42
 1281 0052 02D1     		bne	.L109
 511:SettingsHelper.c ****         change_page(&menu_system[0]);
 1282              		.loc 1 511 0
 1283 0054 0748     		ldr	r0, .L115+24
 1284              	.LVL190:
 1285 0056 FFF7FEFF 		bl	change_page
 1286              	.LVL191:
 1287              	.L109:
 1288 005a 38BD     		pop	{r3, r4, r5, pc}
 1289              	.L116:
 1290              		.align	2
 1291              	.L115:
 1292 005c 00000000 		.word	.LANCHOR1
 1293 0060 54000000 		.word	.LC8
 1294 0064 00000000 		.word	variable_to_be_displayed
ARM GAS  C:\Users\David\AppData\Local\Temp\ccJPkTSt.s 			page 33


 1295 0068 64000000 		.word	.LC9
 1296 006c 40000000 		.word	.LANCHOR1+64
 1297 0070 58000000 		.word	.LANCHOR1+88
 1298 0074 04000000 		.word	.LANCHOR1+4
 1299              		.cfi_endproc
 1300              	.LFE89:
 1301              		.size	choose_param_page6, .-choose_param_page6
 1302              		.section	.text.choose_param_page7,"ax",%progbits
 1303              		.align	2
 1304              		.global	choose_param_page7
 1305              		.thumb
 1306              		.thumb_func
 1307              		.type	choose_param_page7, %function
 1308              	choose_param_page7:
 1309              	.LFB90:
 512:SettingsHelper.c ****     }
 513:SettingsHelper.c **** }
 514:SettingsHelper.c **** 
 515:SettingsHelper.c **** //{"A:Fotorezisztor?","1:<- 2:-> *: Ki"}
 516:SettingsHelper.c **** void choose_param_page7() {
 1310              		.loc 1 516 0
 1311              		.cfi_startproc
 1312              		@ args = 0, pretend = 0, frame = 0
 1313              		@ frame_needed = 0, uses_anonymous_args = 0
 1314 0000 08B5     		push	{r3, lr}
 1315              		.cfi_def_cfa_offset 8
 1316              		.cfi_offset 3, -8
 1317              		.cfi_offset 14, -4
 517:SettingsHelper.c ****     uint8 pressed = get_pressed_key();
 1318              		.loc 1 517 0
 1319 0002 FFF7FEFF 		bl	get_pressed_key
 1320              	.LVL192:
 518:SettingsHelper.c ****     
 519:SettingsHelper.c ****     if (pressed == 'A') {        
 1321              		.loc 1 519 0
 1322 0006 4128     		cmp	r0, #65
 1323 0008 1AD1     		bne	.L118
 1324              	.LBB19:
 520:SettingsHelper.c ****         actual_eeprom_addr = USE_PHOTO_RES_ADDR;
 1325              		.loc 1 520 0
 1326 000a 0320     		movs	r0, #3
 1327              	.LVL193:
 1328 000c 154B     		ldr	r3, .L125
 1329 000e 83F8AC00 		strb	r0, [r3, #172]
 521:SettingsHelper.c ****         uint8 stat_now = ReadInt8(actual_eeprom_addr);
 1330              		.loc 1 521 0
 1331 0012 FFF7FEFF 		bl	ReadInt8
 1332              	.LVL194:
 522:SettingsHelper.c ****         sprintf(variable_to_be_displayed, "%s van kapcsolva", stat_now == 1 ? "BE" : "KI");
 1333              		.loc 1 522 0
 1334 0016 0128     		cmp	r0, #1
 1335 0018 01D1     		bne	.L123
 1336 001a 134A     		ldr	r2, .L125+4
 1337 001c 00E0     		b	.L119
 1338              	.L123:
 1339 001e 134A     		ldr	r2, .L125+8
 1340              	.L119:
ARM GAS  C:\Users\David\AppData\Local\Temp\ccJPkTSt.s 			page 34


 1341              		.loc 1 522 0 is_stmt 0 discriminator 4
 1342 0020 1349     		ldr	r1, .L125+12
 1343 0022 1448     		ldr	r0, .L125+16
 1344              	.LVL195:
 1345 0024 FFF7FEFF 		bl	sprintf
 1346              	.LVL196:
 523:SettingsHelper.c ****         LCD_Position(1u, 4u);
 1347              		.loc 1 523 0 is_stmt 1 discriminator 4
 1348 0028 0421     		movs	r1, #4
 1349 002a 0120     		movs	r0, #1
 1350 002c FFF7FEFF 		bl	LCD_Position
 1351              	.LVL197:
 524:SettingsHelper.c ****         menu_system[10].page.line2 = "1: Be 0: Ki *:X";
 1352              		.loc 1 524 0 discriminator 4
 1353 0030 0C48     		ldr	r0, .L125
 1354 0032 114B     		ldr	r3, .L125+20
 1355 0034 C0F88030 		str	r3, [r0, #128]
 525:SettingsHelper.c ****         change_page(&menu_system[10]);
 1356              		.loc 1 525 0 discriminator 4
 1357 0038 7C30     		adds	r0, r0, #124
 1358 003a FFF7FEFF 		bl	change_page
 1359              	.LVL198:
 1360              	.LBE19:
 1361 003e 08BD     		pop	{r3, pc}
 1362              	.LVL199:
 1363              	.L118:
 526:SettingsHelper.c ****     }
 527:SettingsHelper.c ****     else if (pressed == '1') {
 1364              		.loc 1 527 0
 1365 0040 3128     		cmp	r0, #49
 1366 0042 03D1     		bne	.L121
 528:SettingsHelper.c ****        change_page(&menu_system[6]); 
 1367              		.loc 1 528 0
 1368 0044 0D48     		ldr	r0, .L125+24
 1369              	.LVL200:
 1370 0046 FFF7FEFF 		bl	change_page
 1371              	.LVL201:
 1372 004a 08BD     		pop	{r3, pc}
 1373              	.LVL202:
 1374              	.L121:
 529:SettingsHelper.c ****     }
 530:SettingsHelper.c ****     else if (pressed == '2') {
 1375              		.loc 1 530 0
 1376 004c 3228     		cmp	r0, #50
 1377 004e 03D1     		bne	.L122
 531:SettingsHelper.c ****         change_page(&menu_system[1]);
 1378              		.loc 1 531 0
 1379 0050 0B48     		ldr	r0, .L125+28
 1380              	.LVL203:
 1381 0052 FFF7FEFF 		bl	change_page
 1382              	.LVL204:
 1383 0056 08BD     		pop	{r3, pc}
 1384              	.LVL205:
 1385              	.L122:
 532:SettingsHelper.c ****     
 533:SettingsHelper.c ****     }else if (pressed == '*') {
 1386              		.loc 1 533 0
ARM GAS  C:\Users\David\AppData\Local\Temp\ccJPkTSt.s 			page 35


 1387 0058 2A28     		cmp	r0, #42
 1388 005a 02D1     		bne	.L117
 534:SettingsHelper.c ****         change_page(&menu_system[0]);
 1389              		.loc 1 534 0
 1390 005c 0948     		ldr	r0, .L125+32
 1391              	.LVL206:
 1392 005e FFF7FEFF 		bl	change_page
 1393              	.LVL207:
 1394              	.L117:
 1395 0062 08BD     		pop	{r3, pc}
 1396              	.L126:
 1397              		.align	2
 1398              	.L125:
 1399 0064 00000000 		.word	.LANCHOR1
 1400 0068 28000000 		.word	.LC4
 1401 006c 2C000000 		.word	.LC5
 1402 0070 30000000 		.word	.LC6
 1403 0074 00000000 		.word	variable_to_be_displayed
 1404 0078 44000000 		.word	.LC7
 1405 007c 4C000000 		.word	.LANCHOR1+76
 1406 0080 10000000 		.word	.LANCHOR1+16
 1407 0084 04000000 		.word	.LANCHOR1+4
 1408              		.cfi_endproc
 1409              	.LFE90:
 1410              		.size	choose_param_page7, .-choose_param_page7
 1411              		.section	.text.read_new_code,"ax",%progbits
 1412              		.align	2
 1413              		.global	read_new_code
 1414              		.thumb
 1415              		.thumb_func
 1416              		.type	read_new_code, %function
 1417              	read_new_code:
 1418              	.LFB75:
 234:SettingsHelper.c ****     if (pressed != 0) {
 1419              		.loc 1 234 0
 1420              		.cfi_startproc
 1421              		@ args = 0, pretend = 0, frame = 0
 1422              		@ frame_needed = 0, uses_anonymous_args = 0
 1423              	.LVL208:
 235:SettingsHelper.c ****         if (new_code_buffer_ind == 0) {
 1424              		.loc 1 235 0
 1425 0000 B0B1     		cbz	r0, .L130
 234:SettingsHelper.c ****     if (pressed != 0) {
 1426              		.loc 1 234 0
 1427 0002 38B5     		push	{r3, r4, r5, lr}
 1428              		.cfi_def_cfa_offset 16
 1429              		.cfi_offset 3, -16
 1430              		.cfi_offset 4, -12
 1431              		.cfi_offset 5, -8
 1432              		.cfi_offset 14, -4
 1433 0004 0446     		mov	r4, r0
 236:SettingsHelper.c ****             LCD_Position(1u, 0u);
 1434              		.loc 1 236 0
 1435 0006 0C4B     		ldr	r3, .L133
 1436 0008 1B79     		ldrb	r3, [r3, #4]	@ zero_extendqisi2
 1437 000a 1BB9     		cbnz	r3, .L129
 237:SettingsHelper.c ****         }
ARM GAS  C:\Users\David\AppData\Local\Temp\ccJPkTSt.s 			page 36


 1438              		.loc 1 237 0
 1439 000c 0021     		movs	r1, #0
 1440 000e 0120     		movs	r0, #1
 1441              	.LVL209:
 1442 0010 FFF7FEFF 		bl	LCD_Position
 1443              	.LVL210:
 1444              	.L129:
 239:SettingsHelper.c ****         printChar('*');
 1445              		.loc 1 239 0
 1446 0014 084D     		ldr	r5, .L133
 1447 0016 2B79     		ldrb	r3, [r5, #4]	@ zero_extendqisi2
 1448 0018 5A1C     		adds	r2, r3, #1
 1449 001a 2A71     		strb	r2, [r5, #4]
 1450 001c 074A     		ldr	r2, .L133+4
 1451 001e D454     		strb	r4, [r2, r3]
 240:SettingsHelper.c ****         if (new_code_buffer_ind == 4) {
 1452              		.loc 1 240 0
 1453 0020 2A20     		movs	r0, #42
 1454 0022 FFF7FEFF 		bl	printChar
 1455              	.LVL211:
 241:SettingsHelper.c ****             return 1u; 
 1456              		.loc 1 241 0
 1457 0026 2B79     		ldrb	r3, [r5, #4]	@ zero_extendqisi2
 1458 0028 042B     		cmp	r3, #4
 1459 002a 03D1     		bne	.L131
 242:SettingsHelper.c ****         } 
 1460              		.loc 1 242 0
 1461 002c 0120     		movs	r0, #1
 1462 002e 38BD     		pop	{r3, r4, r5, pc}
 1463              	.LVL212:
 1464              	.L130:
 1465              		.cfi_def_cfa_offset 0
 1466              		.cfi_restore 3
 1467              		.cfi_restore 4
 1468              		.cfi_restore 5
 1469              		.cfi_restore 14
 245:SettingsHelper.c **** }
 1470              		.loc 1 245 0
 1471 0030 0020     		movs	r0, #0
 1472              	.LVL213:
 246:SettingsHelper.c **** 
 1473              		.loc 1 246 0
 1474 0032 7047     		bx	lr
 1475              	.L131:
 1476              		.cfi_def_cfa_offset 16
 1477              		.cfi_offset 3, -16
 1478              		.cfi_offset 4, -12
 1479              		.cfi_offset 5, -8
 1480              		.cfi_offset 14, -4
 245:SettingsHelper.c **** }
 1481              		.loc 1 245 0
 1482 0034 0020     		movs	r0, #0
 246:SettingsHelper.c **** 
 1483              		.loc 1 246 0
 1484 0036 38BD     		pop	{r3, r4, r5, pc}
 1485              	.L134:
 1486              		.align	2
ARM GAS  C:\Users\David\AppData\Local\Temp\ccJPkTSt.s 			page 37


 1487              	.L133:
 1488 0038 00000000 		.word	.LANCHOR0
 1489 003c 00000000 		.word	new_code_buffer
 1490              		.cfi_endproc
 1491              	.LFE75:
 1492              		.size	read_new_code, .-read_new_code
 1493              		.section	.text.init_constants,"ax",%progbits
 1494              		.align	2
 1495              		.global	init_constants
 1496              		.thumb
 1497              		.thumb_func
 1498              		.type	init_constants, %function
 1499              	init_constants:
 1500              	.LFB77:
 282:SettingsHelper.c **** NIGHT_FROM = ReadInt8(NIGHT_FROM_ADDR);
 1501              		.loc 1 282 0
 1502              		.cfi_startproc
 1503              		@ args = 0, pretend = 0, frame = 0
 1504              		@ frame_needed = 0, uses_anonymous_args = 0
 1505 0000 10B5     		push	{r4, lr}
 1506              		.cfi_def_cfa_offset 8
 1507              		.cfi_offset 4, -8
 1508              		.cfi_offset 14, -4
 283:SettingsHelper.c **** NIGHT_TO = ReadInt8(NIGHT_UNITL_ADDR);
 1509              		.loc 1 283 0
 1510 0002 0020     		movs	r0, #0
 1511 0004 FFF7FEFF 		bl	ReadInt8
 1512              	.LVL214:
 1513 0008 104B     		ldr	r3, .L137
 1514 000a 5871     		strb	r0, [r3, #5]
 284:SettingsHelper.c **** PH_RES_ON = ReadInt8(USE_PHOTO_RES_ADDR);
 1515              		.loc 1 284 0
 1516 000c 0120     		movs	r0, #1
 1517 000e FFF7FEFF 		bl	ReadInt8
 1518              	.LVL215:
 1519 0012 0F4C     		ldr	r4, .L137+4
 1520 0014 84F8BA00 		strb	r0, [r4, #186]
 285:SettingsHelper.c **** AUTO_POWERON = ReadInt8(AUTO_WATCH_ACTIVATED_ADDR);
 1521              		.loc 1 285 0
 1522 0018 0320     		movs	r0, #3
 1523 001a FFF7FEFF 		bl	ReadInt8
 1524              	.LVL216:
 1525 001e 84F8BB00 		strb	r0, [r4, #187]
 286:SettingsHelper.c **** WATCH_DELAY = ReadInt16(WATCH_DELAY_ADDR);
 1526              		.loc 1 286 0
 1527 0022 0220     		movs	r0, #2
 1528 0024 FFF7FEFF 		bl	ReadInt8
 1529              	.LVL217:
 1530 0028 84F8BC00 		strb	r0, [r4, #188]
 287:SettingsHelper.c **** DEACT_DELAY = ReadInt16(DEACT_DELAY_ADDR);
 1531              		.loc 1 287 0
 1532 002c 0820     		movs	r0, #8
 1533 002e FFF7FEFF 		bl	ReadInt16
 1534              	.LVL218:
 1535 0032 A4F8BE00 		strh	r0, [r4, #190]	@ movhi
 288:SettingsHelper.c **** BEEPING_DELAY = ReadInt16(BEEP_LENGTH_ADDR);
 1536              		.loc 1 288 0
ARM GAS  C:\Users\David\AppData\Local\Temp\ccJPkTSt.s 			page 38


 1537 0036 0A20     		movs	r0, #10
 1538 0038 FFF7FEFF 		bl	ReadInt16
 1539              	.LVL219:
 1540 003c A4F8C000 		strh	r0, [r4, #192]	@ movhi
 289:SettingsHelper.c **** }
 1541              		.loc 1 289 0
 1542 0040 0620     		movs	r0, #6
 1543 0042 FFF7FEFF 		bl	ReadInt16
 1544              	.LVL220:
 1545 0046 A4F8C200 		strh	r0, [r4, #194]	@ movhi
 1546 004a 10BD     		pop	{r4, pc}
 1547              	.L138:
 1548              		.align	2
 1549              	.L137:
 1550 004c 00000000 		.word	.LANCHOR0
 1551 0050 00000000 		.word	.LANCHOR1
 1552              		.cfi_endproc
 1553              	.LFE77:
 1554              		.size	init_constants, .-init_constants
 1555              		.section	.text.change_16_num,"ax",%progbits
 1556              		.align	2
 1557              		.global	change_16_num
 1558              		.thumb
 1559              		.thumb_func
 1560              		.type	change_16_num, %function
 1561              	change_16_num:
 1562              	.LFB68:
 163:SettingsHelper.c ****     int16 new_delay = read_num_from_keypad(get_pressed_key());
 1563              		.loc 1 163 0
 1564              		.cfi_startproc
 1565              		@ args = 0, pretend = 0, frame = 0
 1566              		@ frame_needed = 0, uses_anonymous_args = 0
 1567 0000 10B5     		push	{r4, lr}
 1568              		.cfi_def_cfa_offset 8
 1569              		.cfi_offset 4, -8
 1570              		.cfi_offset 14, -4
 164:SettingsHelper.c ****     if (new_delay >= 0) {
 1571              		.loc 1 164 0
 1572 0002 FFF7FEFF 		bl	get_pressed_key
 1573              	.LVL221:
 1574 0006 FFF7FEFF 		bl	read_num_from_keypad
 1575              	.LVL222:
 165:SettingsHelper.c ****        StoreInt16(new_delay, actual_eeprom_addr);
 1576              		.loc 1 165 0
 1577 000a 0028     		cmp	r0, #0
 1578              	.LVL223:
 1579 000c 0CDB     		blt	.L140
 166:SettingsHelper.c ****        init_constants();
 1580              		.loc 1 166 0
 1581 000e 0B4C     		ldr	r4, .L143
 1582 0010 94F8AC10 		ldrb	r1, [r4, #172]	@ zero_extendqisi2
 1583 0014 80B2     		uxth	r0, r0
 1584 0016 FFF7FEFF 		bl	StoreInt16
 1585              	.LVL224:
 167:SettingsHelper.c ****        change_page(&menu_system[1]);
 1586              		.loc 1 167 0
 1587 001a FFF7FEFF 		bl	init_constants
ARM GAS  C:\Users\David\AppData\Local\Temp\ccJPkTSt.s 			page 39


 1588              	.LVL225:
 168:SettingsHelper.c ****     }
 1589              		.loc 1 168 0
 1590 001e 04F11000 		add	r0, r4, #16
 1591 0022 FFF7FEFF 		bl	change_page
 1592              	.LVL226:
 1593 0026 10BD     		pop	{r4, pc}
 1594              	.L140:
 170:SettingsHelper.c ****         num_ind = 0;
 1595              		.loc 1 170 0
 1596 0028 10F1020F 		cmn	r0, #2
 1597 002c 05D1     		bne	.L139
 171:SettingsHelper.c ****         change_page(&menu_system[1]);
 1598              		.loc 1 171 0
 1599 002e 0022     		movs	r2, #0
 1600 0030 034B     		ldr	r3, .L143+4
 1601 0032 9A70     		strb	r2, [r3, #2]
 172:SettingsHelper.c ****     }
 1602              		.loc 1 172 0
 1603 0034 0348     		ldr	r0, .L143+8
 1604 0036 FFF7FEFF 		bl	change_page
 1605              	.LVL227:
 1606              	.L139:
 1607 003a 10BD     		pop	{r4, pc}
 1608              	.L144:
 1609              		.align	2
 1610              	.L143:
 1611 003c 00000000 		.word	.LANCHOR1
 1612 0040 00000000 		.word	.LANCHOR0
 1613 0044 10000000 		.word	.LANCHOR1+16
 1614              		.cfi_endproc
 1615              	.LFE68:
 1616              		.size	change_16_num, .-change_16_num
 1617              		.section	.text.change_8_num,"ax",%progbits
 1618              		.align	2
 1619              		.global	change_8_num
 1620              		.thumb
 1621              		.thumb_func
 1622              		.type	change_8_num, %function
 1623              	change_8_num:
 1624              	.LFB69:
 176:SettingsHelper.c ****     int16 new_delay = read_num_from_keypad(get_pressed_key());
 1625              		.loc 1 176 0
 1626              		.cfi_startproc
 1627              		@ args = 0, pretend = 0, frame = 0
 1628              		@ frame_needed = 0, uses_anonymous_args = 0
 1629 0000 10B5     		push	{r4, lr}
 1630              		.cfi_def_cfa_offset 8
 1631              		.cfi_offset 4, -8
 1632              		.cfi_offset 14, -4
 177:SettingsHelper.c ****     if (new_delay >= 0) {
 1633              		.loc 1 177 0
 1634 0002 FFF7FEFF 		bl	get_pressed_key
 1635              	.LVL228:
 1636 0006 FFF7FEFF 		bl	read_num_from_keypad
 1637              	.LVL229:
 178:SettingsHelper.c ****        StoreInt8(new_delay, actual_eeprom_addr);
ARM GAS  C:\Users\David\AppData\Local\Temp\ccJPkTSt.s 			page 40


 1638              		.loc 1 178 0
 1639 000a 0028     		cmp	r0, #0
 1640              	.LVL230:
 1641 000c 0CDB     		blt	.L146
 179:SettingsHelper.c ****        init_constants();
 1642              		.loc 1 179 0
 1643 000e 0B4C     		ldr	r4, .L149
 1644 0010 94F8AC10 		ldrb	r1, [r4, #172]	@ zero_extendqisi2
 1645 0014 C0B2     		uxtb	r0, r0
 1646 0016 FFF7FEFF 		bl	StoreInt8
 1647              	.LVL231:
 180:SettingsHelper.c ****        change_page(&menu_system[1]);
 1648              		.loc 1 180 0
 1649 001a FFF7FEFF 		bl	init_constants
 1650              	.LVL232:
 181:SettingsHelper.c ****     }
 1651              		.loc 1 181 0
 1652 001e 04F11000 		add	r0, r4, #16
 1653 0022 FFF7FEFF 		bl	change_page
 1654              	.LVL233:
 1655 0026 10BD     		pop	{r4, pc}
 1656              	.L146:
 183:SettingsHelper.c ****         num_ind = 0;
 1657              		.loc 1 183 0
 1658 0028 10F1020F 		cmn	r0, #2
 1659 002c 05D1     		bne	.L145
 184:SettingsHelper.c ****         change_page(&menu_system[1]);
 1660              		.loc 1 184 0
 1661 002e 0022     		movs	r2, #0
 1662 0030 034B     		ldr	r3, .L149+4
 1663 0032 9A70     		strb	r2, [r3, #2]
 185:SettingsHelper.c ****     }
 1664              		.loc 1 185 0
 1665 0034 0348     		ldr	r0, .L149+8
 1666 0036 FFF7FEFF 		bl	change_page
 1667              	.LVL234:
 1668              	.L145:
 1669 003a 10BD     		pop	{r4, pc}
 1670              	.L150:
 1671              		.align	2
 1672              	.L149:
 1673 003c 00000000 		.word	.LANCHOR1
 1674 0040 00000000 		.word	.LANCHOR0
 1675 0044 10000000 		.word	.LANCHOR1+16
 1676              		.cfi_endproc
 1677              	.LFE69:
 1678              		.size	change_8_num, .-change_8_num
 1679              		.section	.text.ask_bool,"ax",%progbits
 1680              		.align	2
 1681              		.global	ask_bool
 1682              		.thumb
 1683              		.thumb_func
 1684              		.type	ask_bool, %function
 1685              	ask_bool:
 1686              	.LFB70:
 189:SettingsHelper.c **** uint8 pressed = get_pressed_key();
 1687              		.loc 1 189 0
ARM GAS  C:\Users\David\AppData\Local\Temp\ccJPkTSt.s 			page 41


 1688              		.cfi_startproc
 1689              		@ args = 0, pretend = 0, frame = 0
 1690              		@ frame_needed = 0, uses_anonymous_args = 0
 1691 0000 10B5     		push	{r4, lr}
 1692              		.cfi_def_cfa_offset 8
 1693              		.cfi_offset 4, -8
 1694              		.cfi_offset 14, -4
 190:SettingsHelper.c **** if (pressed == '1') {
 1695              		.loc 1 190 0
 1696 0002 FFF7FEFF 		bl	get_pressed_key
 1697              	.LVL235:
 191:SettingsHelper.c ****  StoreInt8(1, actual_eeprom_addr);
 1698              		.loc 1 191 0
 1699 0006 3128     		cmp	r0, #49
 1700 0008 0BD1     		bne	.L152
 192:SettingsHelper.c ****  change_page(&menu_system[0]);
 1701              		.loc 1 192 0
 1702 000a 104C     		ldr	r4, .L156
 1703 000c 94F8AC10 		ldrb	r1, [r4, #172]	@ zero_extendqisi2
 1704 0010 0120     		movs	r0, #1
 1705              	.LVL236:
 1706 0012 FFF7FEFF 		bl	StoreInt8
 1707              	.LVL237:
 193:SettingsHelper.c **** init_constants();
 1708              		.loc 1 193 0
 1709 0016 201D     		adds	r0, r4, #4
 1710 0018 FFF7FEFF 		bl	change_page
 1711              	.LVL238:
 194:SettingsHelper.c **** }
 1712              		.loc 1 194 0
 1713 001c FFF7FEFF 		bl	init_constants
 1714              	.LVL239:
 1715 0020 10BD     		pop	{r4, pc}
 1716              	.LVL240:
 1717              	.L152:
 196:SettingsHelper.c ****  StoreInt8(0, actual_eeprom_addr);
 1718              		.loc 1 196 0
 1719 0022 3028     		cmp	r0, #48
 1720 0024 0BD1     		bne	.L154
 197:SettingsHelper.c ****  change_page(&menu_system[0]);
 1721              		.loc 1 197 0
 1722 0026 094C     		ldr	r4, .L156
 1723 0028 94F8AC10 		ldrb	r1, [r4, #172]	@ zero_extendqisi2
 1724 002c 0020     		movs	r0, #0
 1725              	.LVL241:
 1726 002e FFF7FEFF 		bl	StoreInt8
 1727              	.LVL242:
 198:SettingsHelper.c **** init_constants();
 1728              		.loc 1 198 0
 1729 0032 201D     		adds	r0, r4, #4
 1730 0034 FFF7FEFF 		bl	change_page
 1731              	.LVL243:
 199:SettingsHelper.c **** }
 1732              		.loc 1 199 0
 1733 0038 FFF7FEFF 		bl	init_constants
 1734              	.LVL244:
 1735 003c 10BD     		pop	{r4, pc}
ARM GAS  C:\Users\David\AppData\Local\Temp\ccJPkTSt.s 			page 42


 1736              	.LVL245:
 1737              	.L154:
 201:SettingsHelper.c **** change_page(&menu_system[1]);
 1738              		.loc 1 201 0
 1739 003e 2A28     		cmp	r0, #42
 1740 0040 02D1     		bne	.L151
 202:SettingsHelper.c **** }
 1741              		.loc 1 202 0
 1742 0042 0348     		ldr	r0, .L156+4
 1743              	.LVL246:
 1744 0044 FFF7FEFF 		bl	change_page
 1745              	.LVL247:
 1746              	.L151:
 1747 0048 10BD     		pop	{r4, pc}
 1748              	.L157:
 1749 004a 00BF     		.align	2
 1750              	.L156:
 1751 004c 00000000 		.word	.LANCHOR1
 1752 0050 10000000 		.word	.LANCHOR1+16
 1753              		.cfi_endproc
 1754              	.LFE70:
 1755              		.size	ask_bool, .-ask_bool
 1756              		.section	.text.init_code,"ax",%progbits
 1757              		.align	2
 1758              		.global	init_code
 1759              		.thumb
 1760              		.thumb_func
 1761              		.type	init_code, %function
 1762              	init_code:
 1763              	.LFB78:
 292:SettingsHelper.c **** ReadInt8ArrayFromRow(CODE, 4, CODE_ADDR);
 1764              		.loc 1 292 0
 1765              		.cfi_startproc
 1766              		@ args = 0, pretend = 0, frame = 0
 1767              		@ frame_needed = 0, uses_anonymous_args = 0
 1768 0000 08B5     		push	{r3, lr}
 1769              		.cfi_def_cfa_offset 8
 1770              		.cfi_offset 3, -8
 1771              		.cfi_offset 14, -4
 293:SettingsHelper.c **** }
 1772              		.loc 1 293 0
 1773 0002 2022     		movs	r2, #32
 1774 0004 0421     		movs	r1, #4
 1775 0006 0248     		ldr	r0, .L160
 1776 0008 FFF7FEFF 		bl	ReadInt8ArrayFromRow
 1777              	.LVL248:
 1778 000c 08BD     		pop	{r3, pc}
 1779              	.L161:
 1780 000e 00BF     		.align	2
 1781              	.L160:
 1782 0010 00000000 		.word	.LANCHOR1
 1783              		.cfi_endproc
 1784              	.LFE78:
 1785              		.size	init_code, .-init_code
 1786              		.section	.text.select_new_code,"ax",%progbits
 1787              		.align	2
 1788              		.global	select_new_code
ARM GAS  C:\Users\David\AppData\Local\Temp\ccJPkTSt.s 			page 43


 1789              		.thumb
 1790              		.thumb_func
 1791              		.type	select_new_code, %function
 1792              	select_new_code:
 1793              	.LFB76:
 251:SettingsHelper.c ****     if (first_entered == 0u) {
 1794              		.loc 1 251 0
 1795              		.cfi_startproc
 1796              		@ args = 0, pretend = 0, frame = 0
 1797              		@ frame_needed = 0, uses_anonymous_args = 0
 1798 0000 08B5     		push	{r3, lr}
 1799              		.cfi_def_cfa_offset 8
 1800              		.cfi_offset 3, -8
 1801              		.cfi_offset 14, -4
 252:SettingsHelper.c ****          if (read_new_code(get_pressed_key()) != 0u) {
 1802              		.loc 1 252 0
 1803 0002 234B     		ldr	r3, .L173
 1804 0004 9B79     		ldrb	r3, [r3, #6]	@ zero_extendqisi2
 1805 0006 CBB9     		cbnz	r3, .L163
 253:SettingsHelper.c ****             for (uint8 i = 0; i < 4; i++)
 1806              		.loc 1 253 0
 1807 0008 FFF7FEFF 		bl	get_pressed_key
 1808              	.LVL249:
 1809 000c FFF7FEFF 		bl	read_new_code
 1810              	.LVL250:
 1811 0010 38B9     		cbnz	r0, .L170
 1812 0012 08BD     		pop	{r3, pc}
 1813              	.LVL251:
 1814              	.L166:
 1815              	.LBB20:
 255:SettingsHelper.c ****                 
 1816              		.loc 1 255 0 discriminator 3
 1817 0014 1F4A     		ldr	r2, .L173+4
 1818 0016 D15C     		ldrb	r1, [r2, r3]	@ zero_extendqisi2
 1819 0018 1F4A     		ldr	r2, .L173+8
 1820 001a D154     		strb	r1, [r2, r3]
 254:SettingsHelper.c ****                 entered_code[i] = new_code_buffer[i];    
 1821              		.loc 1 254 0 discriminator 3
 1822 001c 0133     		adds	r3, r3, #1
 1823              	.LVL252:
 1824 001e DBB2     		uxtb	r3, r3
 1825              	.LVL253:
 1826 0020 00E0     		b	.L164
 1827              	.LVL254:
 1828              	.L170:
 1829              	.LBE20:
 1830 0022 0023     		movs	r3, #0
 1831              	.L164:
 1832              	.LVL255:
 1833              	.LBB21:
 254:SettingsHelper.c ****                 entered_code[i] = new_code_buffer[i];    
 1834              		.loc 1 254 0 is_stmt 0 discriminator 1
 1835 0024 032B     		cmp	r3, #3
 1836 0026 F5D9     		bls	.L166
 1837              	.LBE21:
 257:SettingsHelper.c ****             new_code_buffer_ind = 0;
 1838              		.loc 1 257 0 is_stmt 1
ARM GAS  C:\Users\David\AppData\Local\Temp\ccJPkTSt.s 			page 44


 1839 0028 194B     		ldr	r3, .L173
 1840              	.LVL256:
 1841 002a 0122     		movs	r2, #1
 1842 002c 9A71     		strb	r2, [r3, #6]
 258:SettingsHelper.c ****             print_lines_to_lcd("Uj kod ujra:","             ");    
 1843              		.loc 1 258 0
 1844 002e 0022     		movs	r2, #0
 1845 0030 1A71     		strb	r2, [r3, #4]
 259:SettingsHelper.c ****         }
 1846              		.loc 1 259 0
 1847 0032 1A49     		ldr	r1, .L173+12
 1848 0034 1A48     		ldr	r0, .L173+16
 1849 0036 FFF7FEFF 		bl	print_lines_to_lcd
 1850              	.LVL257:
 1851 003a 08BD     		pop	{r3, pc}
 1852              	.L163:
 263:SettingsHelper.c ****            
 1853              		.loc 1 263 0
 1854 003c FFF7FEFF 		bl	get_pressed_key
 1855              	.LVL258:
 1856 0040 FFF7FEFF 		bl	read_new_code
 1857              	.LVL259:
 1858 0044 90B9     		cbnz	r0, .L171
 1859 0046 08BD     		pop	{r3, pc}
 1860              	.LVL260:
 1861              	.L169:
 1862              	.LBB22:
 266:SettingsHelper.c ****                     print_lines_to_lcd("Nem egyeznek meg!","             ");
 1863              		.loc 1 266 0
 1864 0048 134A     		ldr	r2, .L173+8
 1865 004a D15C     		ldrb	r1, [r2, r3]	@ zero_extendqisi2
 1866 004c 114A     		ldr	r2, .L173+4
 1867 004e D25C     		ldrb	r2, [r2, r3]	@ zero_extendqisi2
 1868 0050 9142     		cmp	r1, r2
 1869 0052 08D0     		beq	.L168
 267:SettingsHelper.c ****                     first_entered = 0u;
 1870              		.loc 1 267 0
 1871 0054 1149     		ldr	r1, .L173+12
 1872 0056 1348     		ldr	r0, .L173+20
 1873 0058 FFF7FEFF 		bl	print_lines_to_lcd
 1874              	.LVL261:
 268:SettingsHelper.c ****                     new_code_buffer_ind = 0;
 1875              		.loc 1 268 0
 1876 005c 0C4B     		ldr	r3, .L173
 1877 005e 0022     		movs	r2, #0
 1878 0060 9A71     		strb	r2, [r3, #6]
 269:SettingsHelper.c ****                     return;
 1879              		.loc 1 269 0
 1880 0062 1A71     		strb	r2, [r3, #4]
 270:SettingsHelper.c ****                 }   
 1881              		.loc 1 270 0
 1882 0064 08BD     		pop	{r3, pc}
 1883              	.LVL262:
 1884              	.L168:
 265:SettingsHelper.c ****                 if (entered_code[i] != new_code_buffer[i]) {
 1885              		.loc 1 265 0 discriminator 2
 1886 0066 0133     		adds	r3, r3, #1
ARM GAS  C:\Users\David\AppData\Local\Temp\ccJPkTSt.s 			page 45


 1887              	.LVL263:
 1888 0068 DBB2     		uxtb	r3, r3
 1889              	.LVL264:
 1890 006a 00E0     		b	.L167
 1891              	.LVL265:
 1892              	.L171:
 1893              	.LBE22:
 1894 006c 0023     		movs	r3, #0
 1895              	.L167:
 1896              	.LVL266:
 1897              	.LBB23:
 265:SettingsHelper.c ****                 if (entered_code[i] != new_code_buffer[i]) {
 1898              		.loc 1 265 0 is_stmt 0 discriminator 1
 1899 006e 032B     		cmp	r3, #3
 1900 0070 EAD9     		bls	.L169
 1901              	.LBE23:
 273:SettingsHelper.c ****             first_entered = 0u;
 1902              		.loc 1 273 0 is_stmt 1
 1903 0072 2021     		movs	r1, #32
 1904 0074 0748     		ldr	r0, .L173+4
 1905 0076 FFF7FEFF 		bl	StoreInt8ArrayToRow
 1906              	.LVL267:
 274:SettingsHelper.c ****             new_code_buffer_ind = 0;
 1907              		.loc 1 274 0
 1908 007a 054B     		ldr	r3, .L173
 1909 007c 0022     		movs	r2, #0
 1910 007e 9A71     		strb	r2, [r3, #6]
 275:SettingsHelper.c ****             init_code();
 1911              		.loc 1 275 0
 1912 0080 1A71     		strb	r2, [r3, #4]
 276:SettingsHelper.c ****             change_page(&menu_system[0]);
 1913              		.loc 1 276 0
 1914 0082 FFF7FEFF 		bl	init_code
 1915              	.LVL268:
 277:SettingsHelper.c ****         }
 1916              		.loc 1 277 0
 1917 0086 0848     		ldr	r0, .L173+24
 1918 0088 FFF7FEFF 		bl	change_page
 1919              	.LVL269:
 1920 008c 08BD     		pop	{r3, pc}
 1921              	.L174:
 1922 008e 00BF     		.align	2
 1923              	.L173:
 1924 0090 00000000 		.word	.LANCHOR0
 1925 0094 00000000 		.word	new_code_buffer
 1926 0098 00000000 		.word	entered_code
 1927 009c 70000000 		.word	.LC10
 1928 00a0 80000000 		.word	.LC11
 1929 00a4 90000000 		.word	.LC12
 1930 00a8 04000000 		.word	.LANCHOR1+4
 1931              		.cfi_endproc
 1932              	.LFE76:
 1933              		.size	select_new_code, .-select_new_code
 1934              		.section	.text.init_phone_num,"ax",%progbits
 1935              		.align	2
 1936              		.global	init_phone_num
 1937              		.thumb
ARM GAS  C:\Users\David\AppData\Local\Temp\ccJPkTSt.s 			page 46


 1938              		.thumb_func
 1939              		.type	init_phone_num, %function
 1940              	init_phone_num:
 1941              	.LFB79:
 297:SettingsHelper.c ****     
 1942              		.loc 1 297 0
 1943              		.cfi_startproc
 1944              		@ args = 0, pretend = 0, frame = 0
 1945              		@ frame_needed = 0, uses_anonymous_args = 0
 1946 0000 08B5     		push	{r3, lr}
 1947              		.cfi_def_cfa_offset 8
 1948              		.cfi_offset 3, -8
 1949              		.cfi_offset 14, -4
 299:SettingsHelper.c **** for (uint8 i = 0; i < 9; i++) {
 1950              		.loc 1 299 0
 1951 0002 3022     		movs	r2, #48
 1952 0004 0921     		movs	r1, #9
 1953 0006 0A48     		ldr	r0, .L179
 1954 0008 FFF7FEFF 		bl	ReadInt8ArrayFromRow
 1955              	.LVL270:
 1956              	.LBB24:
 300:SettingsHelper.c **** PHONE_NUM[i] = phone_num_temp_buffer[i];
 1957              		.loc 1 300 0
 1958 000c 0023     		movs	r3, #0
 1959 000e 07E0     		b	.L176
 1960              	.LVL271:
 1961              	.L177:
 301:SettingsHelper.c **** }
 1962              		.loc 1 301 0 discriminator 3
 1963 0010 074A     		ldr	r2, .L179
 1964 0012 D15C     		ldrb	r1, [r2, r3]	@ zero_extendqisi2
 1965 0014 074A     		ldr	r2, .L179+4
 1966 0016 1A44     		add	r2, r2, r3
 1967 0018 82F8B010 		strb	r1, [r2, #176]
 300:SettingsHelper.c **** PHONE_NUM[i] = phone_num_temp_buffer[i];
 1968              		.loc 1 300 0 discriminator 3
 1969 001c 0133     		adds	r3, r3, #1
 1970              	.LVL272:
 1971 001e DBB2     		uxtb	r3, r3
 1972              	.LVL273:
 1973              	.L176:
 300:SettingsHelper.c **** PHONE_NUM[i] = phone_num_temp_buffer[i];
 1974              		.loc 1 300 0 is_stmt 0 discriminator 1
 1975 0020 082B     		cmp	r3, #8
 1976 0022 F5D9     		bls	.L177
 1977              	.LBE24:
 303:SettingsHelper.c **** 
 1978              		.loc 1 303 0 is_stmt 1
 1979 0024 0022     		movs	r2, #0
 1980 0026 034B     		ldr	r3, .L179+4
 1981              	.LVL274:
 1982 0028 83F8B920 		strb	r2, [r3, #185]
 1983 002c 08BD     		pop	{r3, pc}
 1984              	.L180:
 1985 002e 00BF     		.align	2
 1986              	.L179:
 1987 0030 00000000 		.word	phone_num_temp_buffer
ARM GAS  C:\Users\David\AppData\Local\Temp\ccJPkTSt.s 			page 47


 1988 0034 00000000 		.word	.LANCHOR1
 1989              		.cfi_endproc
 1990              	.LFE79:
 1991              		.size	init_phone_num, .-init_phone_num
 1992              		.section	.text.init_settings,"ax",%progbits
 1993              		.align	2
 1994              		.global	init_settings
 1995              		.thumb
 1996              		.thumb_func
 1997              		.type	init_settings, %function
 1998              	init_settings:
 1999              	.LFB80:
 311:SettingsHelper.c **** OUT_FROM_MENU = 0u;
 2000              		.loc 1 311 0
 2001              		.cfi_startproc
 2002              		@ args = 0, pretend = 0, frame = 0
 2003              		@ frame_needed = 0, uses_anonymous_args = 0
 2004 0000 08B5     		push	{r3, lr}
 2005              		.cfi_def_cfa_offset 8
 2006              		.cfi_offset 3, -8
 2007              		.cfi_offset 14, -4
 312:SettingsHelper.c **** change_page(&menu_system[0]);
 2008              		.loc 1 312 0
 2009 0002 0022     		movs	r2, #0
 2010 0004 024B     		ldr	r3, .L183
 2011 0006 DA70     		strb	r2, [r3, #3]
 313:SettingsHelper.c **** 
 2012              		.loc 1 313 0
 2013 0008 0248     		ldr	r0, .L183+4
 2014 000a FFF7FEFF 		bl	change_page
 2015              	.LVL275:
 2016 000e 08BD     		pop	{r3, pc}
 2017              	.L184:
 2018              		.align	2
 2019              	.L183:
 2020 0010 00000000 		.word	.LANCHOR0
 2021 0014 04000000 		.word	.LANCHOR1+4
 2022              		.cfi_endproc
 2023              	.LFE80:
 2024              		.size	init_settings, .-init_settings
 2025              		.section	.text.read_phone_num,"ax",%progbits
 2026              		.align	2
 2027              		.global	read_phone_num
 2028              		.thumb
 2029              		.thumb_func
 2030              		.type	read_phone_num, %function
 2031              	read_phone_num:
 2032              	.LFB81:
 320:SettingsHelper.c **** 
 2033              		.loc 1 320 0
 2034              		.cfi_startproc
 2035              		@ args = 0, pretend = 0, frame = 0
 2036              		@ frame_needed = 0, uses_anonymous_args = 0
 2037              	.LVL276:
 2038 0000 08B5     		push	{r3, lr}
 2039              		.cfi_def_cfa_offset 8
 2040              		.cfi_offset 3, -8
ARM GAS  C:\Users\David\AppData\Local\Temp\ccJPkTSt.s 			page 48


 2041              		.cfi_offset 14, -4
 322:SettingsHelper.c ****         return -2;
 2042              		.loc 1 322 0
 2043 0002 2A28     		cmp	r0, #42
 2044 0004 20D0     		beq	.L188
 325:SettingsHelper.c ****         if (phone_num_buffer_ind == 0)
 2045              		.loc 1 325 0
 2046 0006 2328     		cmp	r0, #35
 2047 0008 07D1     		bne	.L187
 326:SettingsHelper.c ****             return -1;
 2048              		.loc 1 326 0
 2049 000a 1B4B     		ldr	r3, .L197
 2050 000c 9B68     		ldr	r3, [r3, #8]
 2051 000e F3B1     		cbz	r3, .L189
 328:SettingsHelper.c ****         return 1;
 2052              		.loc 1 328 0
 2053 0010 0022     		movs	r2, #0
 2054 0012 194B     		ldr	r3, .L197
 2055 0014 9A60     		str	r2, [r3, #8]
 329:SettingsHelper.c ****     } 
 2056              		.loc 1 329 0
 2057 0016 0120     		movs	r0, #1
 2058              	.LVL277:
 2059 0018 08BD     		pop	{r3, pc}
 2060              	.LVL278:
 2061              	.L187:
 332:SettingsHelper.c ****         return -1;
 2062              		.loc 1 332 0
 2063 001a D8B1     		cbz	r0, .L190
 332:SettingsHelper.c ****         return -1;
 2064              		.loc 1 332 0 is_stmt 0 discriminator 1
 2065 001c 4128     		cmp	r0, #65
 2066 001e 1CD0     		beq	.L191
 332:SettingsHelper.c ****         return -1;
 2067              		.loc 1 332 0 discriminator 2
 2068 0020 4228     		cmp	r0, #66
 2069 0022 1DD0     		beq	.L192
 332:SettingsHelper.c ****         return -1;
 2070              		.loc 1 332 0 discriminator 3
 2071 0024 4328     		cmp	r0, #67
 2072 0026 1ED0     		beq	.L193
 332:SettingsHelper.c ****         return -1;
 2073              		.loc 1 332 0 discriminator 4
 2074 0028 4428     		cmp	r0, #68
 2075 002a 1FD0     		beq	.L194
 332:SettingsHelper.c ****         return -1;
 2076              		.loc 1 332 0 discriminator 5
 2077 002c 124B     		ldr	r3, .L197
 2078 002e 9B68     		ldr	r3, [r3, #8]
 2079 0030 092B     		cmp	r3, #9
 2080 0032 1EDC     		bgt	.L195
 335:SettingsHelper.c ****     printChar(pressed);
 2081              		.loc 1 335 0 is_stmt 1
 2082 0034 591C     		adds	r1, r3, #1
 2083 0036 104A     		ldr	r2, .L197
 2084 0038 9160     		str	r1, [r2, #8]
 2085 003a 104A     		ldr	r2, .L197+4
ARM GAS  C:\Users\David\AppData\Local\Temp\ccJPkTSt.s 			page 49


 2086 003c D054     		strb	r0, [r2, r3]
 336:SettingsHelper.c ****         
 2087              		.loc 1 336 0
 2088 003e FFF7FEFF 		bl	printChar
 2089              	.LVL279:
 338:SettingsHelper.c ****     
 2090              		.loc 1 338 0
 2091 0042 4FF0FF30 		mov	r0, #-1
 2092 0046 08BD     		pop	{r3, pc}
 2093              	.LVL280:
 2094              	.L188:
 323:SettingsHelper.c ****     
 2095              		.loc 1 323 0
 2096 0048 6FF00100 		mvn	r0, #1
 2097              	.LVL281:
 2098 004c 08BD     		pop	{r3, pc}
 2099              	.LVL282:
 2100              	.L189:
 327:SettingsHelper.c ****         phone_num_buffer_ind = 0;
 2101              		.loc 1 327 0
 2102 004e 4FF0FF30 		mov	r0, #-1
 2103              	.LVL283:
 2104 0052 08BD     		pop	{r3, pc}
 2105              	.LVL284:
 2106              	.L190:
 333:SettingsHelper.c ****     }         
 2107              		.loc 1 333 0
 2108 0054 4FF0FF30 		mov	r0, #-1
 2109              	.LVL285:
 2110 0058 08BD     		pop	{r3, pc}
 2111              	.LVL286:
 2112              	.L191:
 2113 005a 4FF0FF30 		mov	r0, #-1
 2114              	.LVL287:
 2115 005e 08BD     		pop	{r3, pc}
 2116              	.LVL288:
 2117              	.L192:
 2118 0060 4FF0FF30 		mov	r0, #-1
 2119              	.LVL289:
 2120 0064 08BD     		pop	{r3, pc}
 2121              	.LVL290:
 2122              	.L193:
 2123 0066 4FF0FF30 		mov	r0, #-1
 2124              	.LVL291:
 2125 006a 08BD     		pop	{r3, pc}
 2126              	.LVL292:
 2127              	.L194:
 2128 006c 4FF0FF30 		mov	r0, #-1
 2129              	.LVL293:
 2130 0070 08BD     		pop	{r3, pc}
 2131              	.LVL294:
 2132              	.L195:
 2133 0072 4FF0FF30 		mov	r0, #-1
 2134              	.LVL295:
 340:SettingsHelper.c **** 
 2135              		.loc 1 340 0
 2136 0076 08BD     		pop	{r3, pc}
ARM GAS  C:\Users\David\AppData\Local\Temp\ccJPkTSt.s 			page 50


 2137              	.L198:
 2138              		.align	2
 2139              	.L197:
 2140 0078 00000000 		.word	.LANCHOR0
 2141 007c 00000000 		.word	phone_num_buffer
 2142              		.cfi_endproc
 2143              	.LFE81:
 2144              		.size	read_phone_num, .-read_phone_num
 2145              		.section	.text.edit_phone_number,"ax",%progbits
 2146              		.align	2
 2147              		.global	edit_phone_number
 2148              		.thumb
 2149              		.thumb_func
 2150              		.type	edit_phone_number, %function
 2151              	edit_phone_number:
 2152              	.LFB82:
 342:SettingsHelper.c ****     int8 res = read_phone_num(get_pressed_key());
 2153              		.loc 1 342 0
 2154              		.cfi_startproc
 2155              		@ args = 0, pretend = 0, frame = 0
 2156              		@ frame_needed = 0, uses_anonymous_args = 0
 2157 0000 08B5     		push	{r3, lr}
 2158              		.cfi_def_cfa_offset 8
 2159              		.cfi_offset 3, -8
 2160              		.cfi_offset 14, -4
 343:SettingsHelper.c ****    if (res == 1) {
 2161              		.loc 1 343 0
 2162 0002 FFF7FEFF 		bl	get_pressed_key
 2163              	.LVL296:
 2164 0006 FFF7FEFF 		bl	read_phone_num
 2165              	.LVL297:
 344:SettingsHelper.c ****         StoreInt8ArrayToRow(phone_num_buffer, PHONE_NUM_1_ADDR);
 2166              		.loc 1 344 0
 2167 000a 0128     		cmp	r0, #1
 2168 000c 09D1     		bne	.L200
 345:SettingsHelper.c ****         init_phone_num();
 2169              		.loc 1 345 0
 2170 000e 3021     		movs	r1, #48
 2171 0010 0948     		ldr	r0, .L203
 2172              	.LVL298:
 2173 0012 FFF7FEFF 		bl	StoreInt8ArrayToRow
 2174              	.LVL299:
 346:SettingsHelper.c ****         change_page(&menu_system[0]);
 2175              		.loc 1 346 0
 2176 0016 FFF7FEFF 		bl	init_phone_num
 2177              	.LVL300:
 347:SettingsHelper.c ****         return;
 2178              		.loc 1 347 0
 2179 001a 0848     		ldr	r0, .L203+4
 2180 001c FFF7FEFF 		bl	change_page
 2181              	.LVL301:
 348:SettingsHelper.c ****     }
 2182              		.loc 1 348 0
 2183 0020 08BD     		pop	{r3, pc}
 2184              	.LVL302:
 2185              	.L200:
 350:SettingsHelper.c ****          phone_num_buffer_ind = 0;
ARM GAS  C:\Users\David\AppData\Local\Temp\ccJPkTSt.s 			page 51


 2186              		.loc 1 350 0
 2187 0022 10F1020F 		cmn	r0, #2
 2188 0026 05D1     		bne	.L199
 351:SettingsHelper.c ****          change_page(&menu_system[0]);
 2189              		.loc 1 351 0
 2190 0028 0022     		movs	r2, #0
 2191 002a 054B     		ldr	r3, .L203+8
 2192 002c 9A60     		str	r2, [r3, #8]
 352:SettingsHelper.c ****     } 
 2193              		.loc 1 352 0
 2194 002e 0348     		ldr	r0, .L203+4
 2195              	.LVL303:
 2196 0030 FFF7FEFF 		bl	change_page
 2197              	.LVL304:
 2198              	.L199:
 2199 0034 08BD     		pop	{r3, pc}
 2200              	.L204:
 2201 0036 00BF     		.align	2
 2202              	.L203:
 2203 0038 00000000 		.word	phone_num_buffer
 2204 003c 04000000 		.word	.LANCHOR1+4
 2205 0040 00000000 		.word	.LANCHOR0
 2206              		.cfi_endproc
 2207              	.LFE82:
 2208              		.size	edit_phone_number, .-edit_phone_number
 2209              		.section	.text.process_settings,"ax",%progbits
 2210              		.align	2
 2211              		.global	process_settings
 2212              		.thumb
 2213              		.thumb_func
 2214              		.type	process_settings, %function
 2215              	process_settings:
 2216              	.LFB91:
 535:SettingsHelper.c ****     }
 536:SettingsHelper.c **** }
 537:SettingsHelper.c **** 
 538:SettingsHelper.c **** void process_settings() {
 2217              		.loc 1 538 0
 2218              		.cfi_startproc
 2219              		@ args = 0, pretend = 0, frame = 0
 2220              		@ frame_needed = 0, uses_anonymous_args = 0
 2221 0000 08B5     		push	{r3, lr}
 2222              		.cfi_def_cfa_offset 8
 2223              		.cfi_offset 3, -8
 2224              		.cfi_offset 14, -4
 539:SettingsHelper.c ****     actual_menu_item.handler();
 2225              		.loc 1 539 0
 2226 0002 024B     		ldr	r3, .L207
 2227 0004 9B68     		ldr	r3, [r3, #8]
 2228 0006 9847     		blx	r3
 2229              	.LVL305:
 2230 0008 08BD     		pop	{r3, pc}
 2231              	.L208:
 2232 000a 00BF     		.align	2
 2233              	.L207:
 2234 000c 00000000 		.word	actual_menu_item
 2235              		.cfi_endproc
ARM GAS  C:\Users\David\AppData\Local\Temp\ccJPkTSt.s 			page 52


 2236              	.LFE91:
 2237              		.size	process_settings, .-process_settings
 2238              		.global	phone_num_buffer_ind
 2239              		.comm	phone_num_buffer,9,4
 2240              		.comm	phone_num_temp_buffer,10,4
 2241              		.global	first_entered
 2242              		.comm	entered_code,4,4
 2243              		.global	new_code_buffer_ind
 2244              		.comm	new_code_buffer,4,4
 2245              		.global	COMMUNICATION_MODE
 2246              		.global	BEEPING_DELAY
 2247              		.global	DEACT_DELAY
 2248              		.global	WATCH_DELAY
 2249              		.global	AUTO_POWERON
 2250              		.global	PH_RES_ON
 2251              		.global	NIGHT_TO
 2252              		.global	NIGHT_FROM
 2253              		.global	PHONE_NUM
 2254              		.global	CODE
 2255              		.global	code_buffer_ind
 2256              		.comm	code_buffer,4,4
 2257              		.global	num_ind
 2258              		.comm	num_buffer,6,4
 2259              		.global	OUT_FROM_MENU
 2260              		.global	actual_eeprom_addr
 2261              		.comm	actual_menu_item,12,4
 2262              		.global	menu_system
 2263              		.comm	variable_to_be_displayed,16,4
 2264              		.data
 2265              		.align	2
 2266              		.set	.LANCHOR1,. + 0
 2267              		.type	CODE, %object
 2268              		.size	CODE, 4
 2269              	CODE:
 2270 0000 34       		.byte	52
 2271 0001 33       		.byte	51
 2272 0002 32       		.byte	50
 2273 0003 31       		.byte	49
 2274              		.type	menu_system, %object
 2275              		.size	menu_system, 168
 2276              	menu_system:
 2277 0004 A4000000 		.word	.LC13
 2278 0008 B4000000 		.word	.LC14
 2279 000c 00000000 		.word	handle_main_menu_page
 2280 0010 C4000000 		.word	.LC15
 2281 0014 D4000000 		.word	.LC16
 2282 0018 00000000 		.word	choose_param_page1
 2283 001c E4000000 		.word	.LC17
 2284 0020 D4000000 		.word	.LC16
 2285 0024 00000000 		.word	choose_param_page2
 2286 0028 F8000000 		.word	.LC18
 2287 002c D4000000 		.word	.LC16
 2288 0030 00000000 		.word	choose_param_page3
 2289 0034 0C010000 		.word	.LC19
 2290 0038 D4000000 		.word	.LC16
 2291 003c 00000000 		.word	choose_param_page4
 2292 0040 1C010000 		.word	.LC20
ARM GAS  C:\Users\David\AppData\Local\Temp\ccJPkTSt.s 			page 53


 2293 0044 D4000000 		.word	.LC16
 2294 0048 00000000 		.word	choose_param_page5
 2295 004c 2C010000 		.word	.LC21
 2296 0050 D4000000 		.word	.LC16
 2297 0054 00000000 		.word	choose_param_page6
 2298 0058 3C010000 		.word	.LC22
 2299 005c D4000000 		.word	.LC16
 2300 0060 00000000 		.word	choose_param_page7
 2301 0064 00000000 		.word	variable_to_be_displayed
 2302 0068 50010000 		.word	.LC23
 2303 006c 00000000 		.word	change_16_num
 2304 0070 00000000 		.word	variable_to_be_displayed
 2305 0074 50010000 		.word	.LC23
 2306 0078 00000000 		.word	change_8_num
 2307 007c 00000000 		.word	variable_to_be_displayed
 2308 0080 54010000 		.word	.LC24
 2309 0084 00000000 		.word	ask_bool
 2310 0088 64010000 		.word	.LC25
 2311 008c 74010000 		.word	.LC26
 2312 0090 00000000 		.word	vertify_code
 2313 0094 78010000 		.word	.LC27
 2314 0098 74010000 		.word	.LC26
 2315 009c 00000000 		.word	select_new_code
 2316 00a0 00000000 		.word	variable_to_be_displayed
 2317 00a4 84010000 		.word	.LC28
 2318 00a8 00000000 		.word	edit_phone_number
 2319              		.type	actual_eeprom_addr, %object
 2320              		.size	actual_eeprom_addr, 1
 2321              	actual_eeprom_addr:
 2322 00ac FF       		.byte	-1
 2323 00ad 000000   		.space	3
 2324              		.type	PHONE_NUM, %object
 2325              		.size	PHONE_NUM, 10
 2326              	PHONE_NUM:
 2327 00b0 37303236 		.ascii	"702668307\000"
 2327      36383330 
 2327      3700
 2328              		.type	NIGHT_TO, %object
 2329              		.size	NIGHT_TO, 1
 2330              	NIGHT_TO:
 2331 00ba 18       		.byte	24
 2332              		.type	PH_RES_ON, %object
 2333              		.size	PH_RES_ON, 1
 2334              	PH_RES_ON:
 2335 00bb 01       		.byte	1
 2336              		.type	AUTO_POWERON, %object
 2337              		.size	AUTO_POWERON, 1
 2338              	AUTO_POWERON:
 2339 00bc 01       		.byte	1
 2340 00bd 00       		.space	1
 2341              		.type	WATCH_DELAY, %object
 2342              		.size	WATCH_DELAY, 2
 2343              	WATCH_DELAY:
 2344 00be 1400     		.short	20
 2345              		.type	DEACT_DELAY, %object
 2346              		.size	DEACT_DELAY, 2
 2347              	DEACT_DELAY:
ARM GAS  C:\Users\David\AppData\Local\Temp\ccJPkTSt.s 			page 54


 2348 00c0 1400     		.short	20
 2349              		.type	BEEPING_DELAY, %object
 2350              		.size	BEEPING_DELAY, 2
 2351              	BEEPING_DELAY:
 2352 00c2 1400     		.short	20
 2353              		.section	.rodata.str1.4,"aMS",%progbits,1
 2354              		.align	2
 2355              	.LC0:
 2356 0000 0D0A00   		.ascii	"\015\012\000"
 2357 0003 00       		.space	1
 2358              	.LC1:
 2359 0004 48696261 		.ascii	"Hibas kod!\000"
 2359      73206B6F 
 2359      642100
 2360 000f 00       		.space	1
 2361              	.LC2:
 2362 0010 25732023 		.ascii	"%s #/*\000"
 2362      2F2A00
 2363 0017 00       		.space	1
 2364              	.LC3:
 2365 0018 25642073 		.ascii	"%d s #:Ok *:X\000"
 2365      20233A4F 
 2365      6B202A3A 
 2365      5800
 2366 0026 0000     		.space	2
 2367              	.LC4:
 2368 0028 424500   		.ascii	"BE\000"
 2369 002b 00       		.space	1
 2370              	.LC5:
 2371 002c 4B4900   		.ascii	"KI\000"
 2372 002f 00       		.space	1
 2373              	.LC6:
 2374 0030 25732076 		.ascii	"%s van kapcsolva\000"
 2374      616E206B 
 2374      61706373 
 2374      6F6C7661 
 2374      00
 2375 0041 000000   		.space	3
 2376              	.LC7:
 2377 0044 313A2042 		.ascii	"1: Be 0: Ki *:X\000"
 2377      6520303A 
 2377      204B6920 
 2377      2A3A5800 
 2378              	.LC8:
 2379 0054 25642068 		.ascii	"%d h #:Ok *:X\000"
 2379      20233A4F 
 2379      6B202A3A 
 2379      5800
 2380 0062 0000     		.space	2
 2381              	.LC9:
 2382 0064 556A2028 		.ascii	"Uj (0-24):\000"
 2382      302D3234 
 2382      293A00
 2383 006f 00       		.space	1
 2384              	.LC10:
 2385 0070 20202020 		.ascii	"             \000"
 2385      20202020 
ARM GAS  C:\Users\David\AppData\Local\Temp\ccJPkTSt.s 			page 55


 2385      20202020 
 2385      2000
 2386 007e 0000     		.space	2
 2387              	.LC11:
 2388 0080 556A206B 		.ascii	"Uj kod ujra:\000"
 2388      6F642075 
 2388      6A72613A 
 2388      00
 2389 008d 000000   		.space	3
 2390              	.LC12:
 2391 0090 4E656D20 		.ascii	"Nem egyeznek meg!\000"
 2391      65677965 
 2391      7A6E656B 
 2391      206D6567 
 2391      2100
 2392 00a2 0000     		.space	2
 2393              	.LC13:
 2394 00a4 413A5061 		.ascii	"A:Param. B: Kod\000"
 2394      72616D2E 
 2394      20423A20 
 2394      4B6F6400 
 2395              	.LC14:
 2396 00b4 433A2054 		.ascii	"C: Tel. *: Ki\000"
 2396      656C2E20 
 2396      2A3A204B 
 2396      6900
 2397 00c2 0000     		.space	2
 2398              	.LC15:
 2399 00c4 413A456C 		.ascii	"A:Elesitesi ido\000"
 2399      65736974 
 2399      65736920 
 2399      69646F00 
 2400              	.LC16:
 2401 00d4 313A3C2D 		.ascii	"1:<- 2:-> *: Ki\000"
 2401      20323A2D 
 2401      3E202A3A 
 2401      204B6900 
 2402              	.LC17:
 2403 00e4 413A4373 		.ascii	"A:Csipog. hossza\000"
 2403      69706F67 
 2403      2E20686F 
 2403      73737A61 
 2403      00
 2404 00f5 000000   		.space	3
 2405              	.LC18:
 2406 00f8 413A4175 		.ascii	"A:Auto. bekapcs.\000"
 2406      746F2E20 
 2406      62656B61 
 2406      7063732E 
 2406      00
 2407 0109 000000   		.space	3
 2408              	.LC19:
 2409 010c 413A4465 		.ascii	"A:Deakt. ido\000"
 2409      616B742E 
 2409      2069646F 
 2409      00
 2410 0119 000000   		.space	3
ARM GAS  C:\Users\David\AppData\Local\Temp\ccJPkTSt.s 			page 56


 2411              	.LC20:
 2412 011c 413A456A 		.ascii	"A:Ejszaka kezd.\000"
 2412      737A616B 
 2412      61206B65 
 2412      7A642E00 
 2413              	.LC21:
 2414 012c 413A456A 		.ascii	"A:Ejszaka vege\000"
 2414      737A616B 
 2414      61207665 
 2414      676500
 2415 013b 00       		.space	1
 2416              	.LC22:
 2417 013c 413A4665 		.ascii	"A:Fenyerz. nezze\000"
 2417      6E796572 
 2417      7A2E206E 
 2417      657A7A65 
 2417      00
 2418 014d 000000   		.space	3
 2419              	.LC23:
 2420 0150 556A3A00 		.ascii	"Uj:\000"
 2421              	.LC24:
 2422 0154 31203A20 		.ascii	"1 : be, 0: ki\000"
 2422      62652C20 
 2422      303A206B 
 2422      6900
 2423 0162 0000     		.space	2
 2424              	.LC25:
 2425 0164 4B657265 		.ascii	"Kerem a kodot:\000"
 2425      6D206120 
 2425      6B6F646F 
 2425      743A00
 2426 0173 00       		.space	1
 2427              	.LC26:
 2428 0174 00       		.ascii	"\000"
 2429 0175 000000   		.space	3
 2430              	.LC27:
 2431 0178 556A206B 		.ascii	"Uj kodot: \000"
 2431      6F646F74 
 2431      3A2000
 2432 0183 00       		.space	1
 2433              	.LC28:
 2434 0184 2B333600 		.ascii	"+36\000"
 2435              		.bss
 2436              		.align	2
 2437              		.set	.LANCHOR0,. + 0
 2438              		.type	COMMUNICATION_MODE, %object
 2439              		.size	COMMUNICATION_MODE, 1
 2440              	COMMUNICATION_MODE:
 2441 0000 00       		.space	1
 2442              		.type	code_buffer_ind, %object
 2443              		.size	code_buffer_ind, 1
 2444              	code_buffer_ind:
 2445 0001 00       		.space	1
 2446              		.type	num_ind, %object
 2447              		.size	num_ind, 1
 2448              	num_ind:
 2449 0002 00       		.space	1
ARM GAS  C:\Users\David\AppData\Local\Temp\ccJPkTSt.s 			page 57


 2450              		.type	OUT_FROM_MENU, %object
 2451              		.size	OUT_FROM_MENU, 1
 2452              	OUT_FROM_MENU:
 2453 0003 00       		.space	1
 2454              		.type	new_code_buffer_ind, %object
 2455              		.size	new_code_buffer_ind, 1
 2456              	new_code_buffer_ind:
 2457 0004 00       		.space	1
 2458              		.type	NIGHT_FROM, %object
 2459              		.size	NIGHT_FROM, 1
 2460              	NIGHT_FROM:
 2461 0005 00       		.space	1
 2462              		.type	first_entered, %object
 2463              		.size	first_entered, 1
 2464              	first_entered:
 2465 0006 00       		.space	1
 2466 0007 00       		.space	1
 2467              		.type	phone_num_buffer_ind, %object
 2468              		.size	phone_num_buffer_ind, 4
 2469              	phone_num_buffer_ind:
 2470 0008 00000000 		.space	4
 2471              		.text
 2472              	.Letext0:
 2473              		.file 2 "c:\\program files (x86)\\cypress\\psoc creator\\4.4\\psoc creator\\import\\gnu\\arm\\5.4.
 2474              		.file 3 "c:\\program files (x86)\\cypress\\psoc creator\\4.4\\psoc creator\\import\\gnu\\arm\\5.4.
 2475              		.file 4 "Generated_Source\\PSoC5/cytypes.h"
 2476              		.file 5 "SettingsHelper.h"
 2477              		.file 6 "<built-in>"
 2478              		.file 7 "Generated_Source\\PSoC5/core_cm3.h"
 2479              		.file 8 "c:\\program files (x86)\\cypress\\psoc creator\\4.4\\psoc creator\\import\\gnu\\arm\\5.4.
 2480              		.file 9 "Generated_Source\\PSoC5/UART.h"
 2481              		.file 10 "Generated_Source\\PSoC5/LCD.h"
 2482              		.file 11 "Generated_Source\\PSoC5/UART_ESP.h"
 2483              		.file 12 "Keypad.h"
 2484              		.file 13 "EEPROM_Helper.h"