ARM GAS  C:\Users\David\AppData\Local\Temp\ccFCSfzz.s 			page 1


   1              		.syntax unified
   2              		.cpu cortex-m3
   3              		.fpu softvfp
   4              		.eabi_attribute 20, 1
   5              		.eabi_attribute 21, 1
   6              		.eabi_attribute 23, 3
   7              		.eabi_attribute 24, 1
   8              		.eabi_attribute 25, 1
   9              		.eabi_attribute 26, 1
  10              		.eabi_attribute 30, 1
  11              		.eabi_attribute 34, 1
  12              		.eabi_attribute 18, 4
  13              		.thumb
  14              		.syntax unified
  15              		.file	"TaskFIFO.c"
  16              		.text
  17              	.Ltext0:
  18              		.cfi_sections	.debug_frame
  19              		.section	.text.create_new_onetimetask,"ax",%progbits
  20              		.align	2
  21              		.global	create_new_onetimetask
  22              		.thumb
  23              		.thumb_func
  24              		.type	create_new_onetimetask, %function
  25              	create_new_onetimetask:
  26              	.LFB63:
  27              		.file 1 "TaskFIFO.c"
   1:TaskFIFO.c    **** /* ========================================
   2:TaskFIFO.c    ****  *
   3:TaskFIFO.c    ****  * Egy lancolt lista megvalositasa, ahol sorban, bizonyos idoelteltevel
   4:TaskFIFO.c    ****  * egymast koveto taskokat lehet definialni.
   5:TaskFIFO.c    ****  * Pl. Csipogasi szekvencia megvalositasa 
   6:TaskFIFO.c    ****  * (pl. legyen 1000 Hz es 1000 ms-ig, utana 500ms-ig csond, majd 1400 Hz 300 ms-ig...)
   7:TaskFIFO.c    ****  * 
   8:TaskFIFO.c    ****  * Akkor hajtja vegre a task-ot, majd torli a taskot a fifo-bol, ha a szamlalo 0, kulonben mindig 1
   9:TaskFIFO.c    ****  *
  10:TaskFIFO.c    ****  * Implementalt fuggvenyek: 
  11:TaskFIFO.c    ****  * Get first item
  12:TaskFIFO.c    ****  * Remove first item
  13:TaskFIFO.c    ****  * Add item to the end
  14:TaskFIFO.c    ****  *
  15:TaskFIFO.c    ****  * ========================================
  16:TaskFIFO.c    **** */
  17:TaskFIFO.c    **** #include "project.h"
  18:TaskFIFO.c    **** 
  19:TaskFIFO.c    **** typedef struct OneTimeTask {
  20:TaskFIFO.c    ****     void (*func)(uint16*);
  21:TaskFIFO.c    ****     uint16 delay;
  22:TaskFIFO.c    ****     uint16 * data;  //A fuggveny parametere
  23:TaskFIFO.c    ****     struct OneTimeTask *next;
  24:TaskFIFO.c    **** } OneTimeTask;
  25:TaskFIFO.c    **** 
  26:TaskFIFO.c    **** typedef struct TaskFIFO {
  27:TaskFIFO.c    ****  OneTimeTask * start, *end;
  28:TaskFIFO.c    **** } TaskFIFO;
  29:TaskFIFO.c    **** 
  30:TaskFIFO.c    **** 
ARM GAS  C:\Users\David\AppData\Local\Temp\ccFCSfzz.s 			page 2


  31:TaskFIFO.c    **** OneTimeTask * create_new_onetimetask( void (*func)(uint16*), uint16 delay, uint16 * data) {
  28              		.loc 1 31 0
  29              		.cfi_startproc
  30              		@ args = 0, pretend = 0, frame = 0
  31              		@ frame_needed = 0, uses_anonymous_args = 0
  32              	.LVL0:
  33 0000 70B5     		push	{r4, r5, r6, lr}
  34              		.cfi_def_cfa_offset 16
  35              		.cfi_offset 4, -16
  36              		.cfi_offset 5, -12
  37              		.cfi_offset 6, -8
  38              		.cfi_offset 14, -4
  39 0002 0546     		mov	r5, r0
  40 0004 0E46     		mov	r6, r1
  41 0006 1446     		mov	r4, r2
  32:TaskFIFO.c    ****     OneTimeTask * new_task;
  33:TaskFIFO.c    ****     new_task = (OneTimeTask*)malloc(sizeof(OneTimeTask));
  42              		.loc 1 33 0
  43 0008 1020     		movs	r0, #16
  44              	.LVL1:
  45 000a FFF7FEFF 		bl	malloc
  46              	.LVL2:
  34:TaskFIFO.c    ****     new_task->delay = delay;
  47              		.loc 1 34 0
  48 000e 8680     		strh	r6, [r0, #4]	@ movhi
  35:TaskFIFO.c    ****     new_task->func = func;
  49              		.loc 1 35 0
  50 0010 0560     		str	r5, [r0]
  36:TaskFIFO.c    ****     new_task->data = data;
  51              		.loc 1 36 0
  52 0012 8460     		str	r4, [r0, #8]
  37:TaskFIFO.c    ****     return new_task;
  38:TaskFIFO.c    **** }
  53              		.loc 1 38 0
  54 0014 70BD     		pop	{r4, r5, r6, pc}
  55              		.cfi_endproc
  56              	.LFE63:
  57              		.size	create_new_onetimetask, .-create_new_onetimetask
  58 0016 00BF     		.section	.text.push,"ax",%progbits
  59              		.align	2
  60              		.global	push
  61              		.thumb
  62              		.thumb_func
  63              		.type	push, %function
  64              	push:
  65              	.LFB64:
  39:TaskFIFO.c    **** 
  40:TaskFIFO.c    **** 
  41:TaskFIFO.c    **** //A vegere beteszek egy taskot.
  42:TaskFIFO.c    **** void push(TaskFIFO* fifo, OneTimeTask* task) {
  66              		.loc 1 42 0
  67              		.cfi_startproc
  68              		@ args = 0, pretend = 0, frame = 0
  69              		@ frame_needed = 0, uses_anonymous_args = 0
  70              		@ link register save eliminated.
  71              	.LVL3:
  43:TaskFIFO.c    ****     if (fifo->end == NULL) {
ARM GAS  C:\Users\David\AppData\Local\Temp\ccFCSfzz.s 			page 3


  72              		.loc 1 43 0
  73 0000 4368     		ldr	r3, [r0, #4]
  74 0002 13B9     		cbnz	r3, .L4
  44:TaskFIFO.c    ****         fifo->end = task;
  75              		.loc 1 44 0
  76 0004 4160     		str	r1, [r0, #4]
  45:TaskFIFO.c    ****         fifo->start = task;
  77              		.loc 1 45 0
  78 0006 0160     		str	r1, [r0]
  79 0008 7047     		bx	lr
  80              	.L4:
  46:TaskFIFO.c    ****     }
  47:TaskFIFO.c    ****     else {
  48:TaskFIFO.c    ****         fifo->end->next = task;
  81              		.loc 1 48 0
  82 000a D960     		str	r1, [r3, #12]
  49:TaskFIFO.c    ****         fifo->end = task;
  83              		.loc 1 49 0
  84 000c 4160     		str	r1, [r0, #4]
  85 000e 7047     		bx	lr
  86              		.cfi_endproc
  87              	.LFE64:
  88              		.size	push, .-push
  89              		.section	.text.get_and_remove_first,"ax",%progbits
  90              		.align	2
  91              		.global	get_and_remove_first
  92              		.thumb
  93              		.thumb_func
  94              		.type	get_and_remove_first, %function
  95              	get_and_remove_first:
  96              	.LFB65:
  50:TaskFIFO.c    ****     }
  51:TaskFIFO.c    **** }
  52:TaskFIFO.c    **** 
  53:TaskFIFO.c    **** //kiveszi az elso elemet. A hivo felelossege felszabaditani a memoriat.
  54:TaskFIFO.c    **** void get_and_remove_first(TaskFIFO* fifo) {
  97              		.loc 1 54 0
  98              		.cfi_startproc
  99              		@ args = 0, pretend = 0, frame = 0
 100              		@ frame_needed = 0, uses_anonymous_args = 0
 101              		@ link register save eliminated.
 102              	.LVL4:
  55:TaskFIFO.c    ****     OneTimeTask* first = fifo->start;
  56:TaskFIFO.c    ****     if (fifo->start == fifo->end) {
 103              		.loc 1 56 0
 104 0000 0368     		ldr	r3, [r0]
 105 0002 4268     		ldr	r2, [r0, #4]
 106 0004 9342     		cmp	r3, r2
 107 0006 03D1     		bne	.L7
  57:TaskFIFO.c    ****         fifo->start = NULL;
 108              		.loc 1 57 0
 109 0008 0023     		movs	r3, #0
 110 000a 0360     		str	r3, [r0]
 111              	.LVL5:
  58:TaskFIFO.c    ****         fifo->end = NULL;
 112              		.loc 1 58 0
 113 000c 4360     		str	r3, [r0, #4]
ARM GAS  C:\Users\David\AppData\Local\Temp\ccFCSfzz.s 			page 4


 114 000e 7047     		bx	lr
 115              	.LVL6:
 116              	.L7:
  59:TaskFIFO.c    ****     } else {
  60:TaskFIFO.c    ****         fifo->start = fifo->start->next;
 117              		.loc 1 60 0
 118 0010 DB68     		ldr	r3, [r3, #12]
 119              	.LVL7:
 120 0012 0360     		str	r3, [r0]
 121              	.LVL8:
 122 0014 7047     		bx	lr
 123              		.cfi_endproc
 124              	.LFE65:
 125              		.size	get_and_remove_first, .-get_and_remove_first
 126 0016 00BF     		.section	.text.free_taskfifo,"ax",%progbits
 127              		.align	2
 128              		.global	free_taskfifo
 129              		.thumb
 130              		.thumb_func
 131              		.type	free_taskfifo, %function
 132              	free_taskfifo:
 133              	.LFB66:
  61:TaskFIFO.c    ****     }
  62:TaskFIFO.c    ****     return;
  63:TaskFIFO.c    **** }
  64:TaskFIFO.c    **** 
  65:TaskFIFO.c    **** //felszabaditja a teljes listat
  66:TaskFIFO.c    **** void free_taskfifo(TaskFIFO * list) {
 134              		.loc 1 66 0
 135              		.cfi_startproc
 136              		@ args = 0, pretend = 0, frame = 0
 137              		@ frame_needed = 0, uses_anonymous_args = 0
 138              	.LVL9:
 139 0000 10B5     		push	{r4, lr}
 140              		.cfi_def_cfa_offset 8
 141              		.cfi_offset 4, -8
 142              		.cfi_offset 14, -4
  67:TaskFIFO.c    ****     OneTimeTask * iter = list->start;
 143              		.loc 1 67 0
 144 0002 0068     		ldr	r0, [r0]
 145              	.LVL10:
  68:TaskFIFO.c    ****     while (iter != NULL) {
 146              		.loc 1 68 0
 147 0004 03E0     		b	.L10
 148              	.L11:
 149              	.LBB2:
  69:TaskFIFO.c    ****         OneTimeTask *nex = iter->next;
 150              		.loc 1 69 0
 151 0006 C468     		ldr	r4, [r0, #12]
 152              	.LVL11:
  70:TaskFIFO.c    ****         free(iter);
 153              		.loc 1 70 0
 154 0008 FFF7FEFF 		bl	free
 155              	.LVL12:
  71:TaskFIFO.c    ****         iter = nex;
 156              		.loc 1 71 0
 157 000c 2046     		mov	r0, r4
ARM GAS  C:\Users\David\AppData\Local\Temp\ccFCSfzz.s 			page 5


 158              	.LVL13:
 159              	.L10:
 160              	.LBE2:
  68:TaskFIFO.c    ****         OneTimeTask *nex = iter->next;
 161              		.loc 1 68 0
 162 000e 0028     		cmp	r0, #0
 163 0010 F9D1     		bne	.L11
  72:TaskFIFO.c    ****     }
  73:TaskFIFO.c    **** }
 164              		.loc 1 73 0
 165 0012 10BD     		pop	{r4, pc}
 166              		.cfi_endproc
 167              	.LFE66:
 168              		.size	free_taskfifo, .-free_taskfifo
 169              		.section	.text.check_if_runnable_and_decrement_counter,"ax",%progbits
 170              		.align	2
 171              		.global	check_if_runnable_and_decrement_counter
 172              		.thumb
 173              		.thumb_func
 174              		.type	check_if_runnable_and_decrement_counter, %function
 175              	check_if_runnable_and_decrement_counter:
 176              	.LFB67:
  74:TaskFIFO.c    **** 
  75:TaskFIFO.c    **** //megnezi, hogy futtathato e mar a taszk, ha nem, akkor csokkenti a szamlalot
  76:TaskFIFO.c    **** uint8 check_if_runnable_and_decrement_counter(TaskFIFO * fifo) {
 177              		.loc 1 76 0
 178              		.cfi_startproc
 179              		@ args = 0, pretend = 0, frame = 0
 180              		@ frame_needed = 0, uses_anonymous_args = 0
 181              		@ link register save eliminated.
 182              	.LVL14:
  77:TaskFIFO.c    ****     if (fifo->start->delay == 0u)
 183              		.loc 1 77 0
 184 0000 0268     		ldr	r2, [r0]
 185 0002 9388     		ldrh	r3, [r2, #4]
 186 0004 1BB1     		cbz	r3, .L15
  78:TaskFIFO.c    ****         return 1u;
  79:TaskFIFO.c    ****     
  80:TaskFIFO.c    ****     fifo->start->delay--;
 187              		.loc 1 80 0
 188 0006 013B     		subs	r3, r3, #1
 189 0008 9380     		strh	r3, [r2, #4]	@ movhi
  81:TaskFIFO.c    ****     return 0u;
 190              		.loc 1 81 0
 191 000a 0020     		movs	r0, #0
 192              	.LVL15:
 193 000c 7047     		bx	lr
 194              	.LVL16:
 195              	.L15:
  78:TaskFIFO.c    ****         return 1u;
 196              		.loc 1 78 0
 197 000e 0120     		movs	r0, #1
 198              	.LVL17:
  82:TaskFIFO.c    **** }
 199              		.loc 1 82 0
 200 0010 7047     		bx	lr
 201              		.cfi_endproc
ARM GAS  C:\Users\David\AppData\Local\Temp\ccFCSfzz.s 			page 6


 202              	.LFE67:
 203              		.size	check_if_runnable_and_decrement_counter, .-check_if_runnable_and_decrement_counter
 204 0012 00BF     		.text
 205              	.Letext0:
 206              		.file 2 "c:\\program files (x86)\\cypress\\psoc creator\\4.4\\psoc creator\\import\\gnu\\arm\\5.4.
 207              		.file 3 "c:\\program files (x86)\\cypress\\psoc creator\\4.4\\psoc creator\\import\\gnu\\arm\\5.4.
 208              		.file 4 "Generated_Source\\PSoC5/cytypes.h"
 209              		.file 5 "<built-in>"
 210              		.file 6 "Generated_Source\\PSoC5/core_cm3.h"